///////////////////////////////////////////////////////////////////////////////
//                                                                            /
// IAR C/C++ Compiler V8.20.2.41139 for 8051            24/Jun/2015  18:23:14 /
// Copyright 2004-2013 IAR Systems AB.                                        /
//                                                                            /
//    Core               =  plain                                             /
//    Code model         =  banked                                            /
//    Data model         =  large                                             /
//    Calling convention =  xdata reentrant                                   /
//    Constant location  =  data_rom                                          /
//    Dptr setup         =  1,16                                              /
//                                                                            /
//    Source file        =  C:\Texas Instruments\BLE-CC254x-1.4.0\Projects\bl /
//                          e\util\UBL\soc_8051\usb_msd\app\ubl_exec.c        /
//    Command line       =  "C:\Texas Instruments\BLE-CC254x-1.4.0\Projects\b /
//                          le\util\UBL\soc_8051\usb_msd\app\ubl_exec.c" -D   /
//                          HAL_SB_BOOT_CODE -D UBL_BUILD -lC "C:\Texas       /
//                          Instruments\BLE-CC254x-1.4.0\Projects\ble\util\UB /
//                          L\soc_8051\usb_msd\iar\CC2540-DK\List\" -lA       /
//                          "C:\Texas Instruments\BLE-CC254x-1.4.0\Projects\b /
//                          le\util\UBL\soc_8051\usb_msd\iar\CC2540-DK\List\" /
//                           --remarks -o "C:\Texas                           /
//                          Instruments\BLE-CC254x-1.4.0\Projects\ble\util\UB /
//                          L\soc_8051\usb_msd\iar\CC2540-DK\Obj\" -e         /
//                          --debug --core=plain --dptr=16,1                  /
//                          --data_model=large --code_model=banked            /
//                          --calling_convention=xdata_reentrant              /
//                          --place_constants=data_rom --nr_virtual_regs 16   /
//                          -I "C:\Texas Instruments\BLE-CC254x-1.4.0\Project /
//                          s\ble\util\UBL\soc_8051\usb_msd\iar\..\app\" -I   /
//                          "C:\Texas Instruments\BLE-CC254x-1.4.0\Projects\b /
//                          le\util\UBL\soc_8051\usb_msd\iar\..\hal\" -I      /
//                          "C:\Texas Instruments\BLE-CC254x-1.4.0\Projects\b /
//                          le\util\UBL\soc_8051\usb_msd\iar\..\hal\usb\" -I  /
//                          "C:\Texas Instruments\BLE-CC254x-1.4.0\Projects\b /
//                          le\util\UBL\soc_8051\usb_msd\iar\..\hal\usb\class /
//                          _msd\" -I "C:\Texas Instruments\BLE-CC254x-1.4.0\ /
//                          Projects\ble\util\UBL\soc_8051\usb_msd\iar\..\hal /
//                          \usb\library\" -Ohz --require_prototypes --mfc    /
//                          "C:\Texas Instruments\BLE-CC254x-1.4.0\Projects\b /
//                          le\util\UBL\soc_8051\usb_msd\app\ubl_main.c"      /
//                          "C:\Texas Instruments\BLE-CC254x-1.4.0\Projects\b /
//                          le\util\UBL\soc_8051\usb_msd\hal\hal_flash.c"     /
//                          "C:\Texas Instruments\BLE-CC254x-1.4.0\Projects\b /
//                          le\util\UBL\soc_8051\usb_msd\hal\usb\library\usb_ /
//                          descriptor_parser.c" "C:\Texas                    /
//                          Instruments\BLE-CC254x-1.4.0\Projects\ble\util\UB /
//                          L\soc_8051\usb_msd\hal\usb\library\usb_framework. /
//                          c" "C:\Texas Instruments\BLE-CC254x-1.4.0\Project /
//                          s\ble\util\UBL\soc_8051\usb_msd\hal\usb\library\u /
//                          sb_standard_requests.c" "C:\Texas                 /
//                          Instruments\BLE-CC254x-1.4.0\Projects\ble\util\UB /
//                          L\soc_8051\usb_msd\hal\usb\usb_interrupt.c"       /
//                          "C:\Texas Instruments\BLE-CC254x-1.4.0\Projects\b /
//                          le\util\UBL\soc_8051\usb_msd\hal\usb\usb_suspend. /
//                          c"                                                /
//    List file          =  C:\Texas Instruments\BLE-CC254x-1.4.0\Projects\bl /
//                          e\util\UBL\soc_8051\usb_msd\iar\CC2540-DK\List\ub /
//                          l_exec.s51                                        /
//                                                                            /
//                                                                            /
///////////////////////////////////////////////////////////////////////////////

        NAME ubl_exec

        RTMODEL "__SystemLibrary", "CLib"
        RTMODEL "__calling_convention", "xdata_reentrant"
        RTMODEL "__code_model", "banked"
        RTMODEL "__core", "plain"
        RTMODEL "__data_model", "large"
        RTMODEL "__dptr_size", "16"
        RTMODEL "__extended_stack", "disabled"
        RTMODEL "__location_for_constants", "data"
        RTMODEL "__number_of_dptrs", "1"
        RTMODEL "__rt_version", "1"

        RSEG DOVERLAY:DATA:NOROOT(0)
        RSEG IOVERLAY:IDATA:NOROOT(0)
        RSEG ISTACK:IDATA:NOROOT(0)
        RSEG PSTACK:XDATA:NOROOT(0)
        RSEG XSTACK:XDATA:NOROOT(0)

        EXTERN ?ALLOC_XSTACK8
        EXTERN ?BANKED_ENTER_XDATA
        EXTERN ?BANKED_LEAVE_XDATA
        EXTERN ?BDISPATCH
        EXTERN ?BRET
        EXTERN ?CALL_IND
        EXTERN ?C_GPTR_LOAD
        EXTERN ?C_GPTR_STORE
        EXTERN ?DEALLOC_XSTACK8
        EXTERN ?FUNC_ENTER_XDATA
        EXTERN ?FUNC_LEAVE_XDATA
        EXTERN ?G_EQ
        EXTERN ?L_MOV_TO_X
        EXTERN ?L_MOV_X
        EXTERN ?L_SHL
        EXTERN ?L_SUB_FROM_X
        EXTERN ?MOVE_LONG8_XDATA_XDATA
        EXTERN ?PUSH_XSTACK8_X_THREE
        EXTERN ?PUSH_XSTACK_I_THREE
        EXTERN ?PUSH_XSTACK_I_TWO
        EXTERN ?S_SHL
        EXTERN ?UL_DIV_MOD
        EXTERN ?UL_GT_X
        EXTERN ?US_SHR
        EXTERN ?V0
        EXTERN ?XSP
        EXTERN ?XSTACK_DISP0_8
        EXTERN __INIT_DATA_Z
        EXTERN __INIT_XDATA_I
        EXTERN __INIT_XDATA_Z
        EXTERN __low_level_init_call

        FUNCTION ??ChangeFeature,021203H
        ARGFRAME XSTACK, 0, STACK
        ARGFRAME IOVERLAY, 0, STATIC
        ARGFRAME DOVERLAY, 0, STATIC
        LOCFRAME ISTACK, 1, STACK
        LOCFRAME XSTACK, 10, STACK
        FUNCTION ??ChangeFeature?relay,0203H
        FUNCTION ??ConfigureEndpoints,021203H
        ARGFRAME XSTACK, 12, STACK
        ARGFRAME IOVERLAY, 0, STATIC
        ARGFRAME DOVERLAY, 0, STATIC
        LOCFRAME XSTACK, 19, STACK
        FUNCTION ??ConfigureEndpoints?relay,0203H
        PUBLIC ??HalFlashErase?relay
        FUNCTION ??HalFlashErase?relay,0203H
        PUBLIC ??HalFlashRead?relay
        FUNCTION ??HalFlashRead?relay,0203H
        PUBLIC ??HalFlashWrite?relay
        FUNCTION ??HalFlashWrite?relay,0203H
        FUNCTION ??gpioInit,0203H
        ARGFRAME XSTACK, 20, STACK
        ARGFRAME IOVERLAY, 0, STATIC
        ARGFRAME DOVERLAY, 0, STATIC
        LOCFRAME ISTACK, 1, STACK
        LOCFRAME XSTACK, 10, STACK
        FUNCTION ??gpioInit?relay,0203H
        PUBLIC ??main?relay
        FUNCTION ??main?relay,0203H
        PUBLIC ??ublAesAuth?relay
        FUNCTION ??ublAesAuth?relay,0203H
        PUBLIC ??ublAesCrypt?relay
        FUNCTION ??ublAesCrypt?relay,0203H
        PUBLIC ??ublCfg?relay
        FUNCTION ??ublCfg?relay,0203H
        PUBLIC ??ublExec?relay
        FUNCTION ??ublExec?relay,0203H
        PUBLIC ??ublInit?relay
        FUNCTION ??ublInit?relay,0203H
        PUBLIC ??ublJump?relay
        FUNCTION ??ublJump?relay,0203H
        PUBLIC ??ublMassErase?relay
        FUNCTION ??ublMassErase?relay,0203H
        PUBLIC ??usbdpFindNext?relay
        FUNCTION ??usbdpFindNext?relay,0203H
        PUBLIC ??usbdpGetConfigurationDesc?relay
        FUNCTION ??usbdpGetConfigurationDesc?relay,0203H
        PUBLIC ??usbdpGetDeviceDesc?relay
        FUNCTION ??usbdpGetDeviceDesc?relay,0203H
        PUBLIC ??usbdpGetInterfaceDesc?relay
        FUNCTION ??usbdpGetInterfaceDesc?relay,0203H
        PUBLIC ??usbdpGetStringDesc?relay
        FUNCTION ??usbdpGetStringDesc?relay,0203H
        PUBLIC ??usbdpInit?relay
        FUNCTION ??usbdpInit?relay,0203H
        PUBLIC ??usbfwInit?relay
        FUNCTION ??usbfwInit?relay,0203H
        PUBLIC ??usbfwReadFifo?relay
        FUNCTION ??usbfwReadFifo?relay,0203H
        PUBLIC ??usbfwResetHandler?relay
        FUNCTION ??usbfwResetHandler?relay,0203H
        PUBLIC ??usbfwSetAllEpStatus?relay
        FUNCTION ??usbfwSetAllEpStatus?relay,0203H
        PUBLIC ??usbfwSetupHandler?relay
        FUNCTION ??usbfwSetupHandler?relay,0203H
        PUBLIC ??usbfwWriteFifo?relay
        FUNCTION ??usbfwWriteFifo?relay,0203H
        PUBLIC ??usbirqHandler?relay
        FUNCTION ??usbirqHandler?relay,0203H
        PUBLIC ??usbirqInit?relay
        FUNCTION ??usbirqInit?relay,0203H
        PUBLIC ??usbsrClearFeature?relay
        FUNCTION ??usbsrClearFeature?relay,0203H
        PUBLIC ??usbsrGetConfiguration?relay
        FUNCTION ??usbsrGetConfiguration?relay,0203H
        PUBLIC ??usbsrGetDescriptor?relay
        FUNCTION ??usbsrGetDescriptor?relay,0203H
        PUBLIC ??usbsrGetInterface?relay
        FUNCTION ??usbsrGetInterface?relay,0203H
        PUBLIC ??usbsrGetStatus?relay
        FUNCTION ??usbsrGetStatus?relay,0203H
        PUBLIC ??usbsrSetAddress?relay
        FUNCTION ??usbsrSetAddress?relay,0203H
        PUBLIC ??usbsrSetConfiguration?relay
        FUNCTION ??usbsrSetConfiguration?relay,0203H
        PUBLIC ??usbsrSetFeature?relay
        FUNCTION ??usbsrSetFeature?relay,0203H
        PUBLIC ??usbsrSetInterface?relay
        FUNCTION ??usbsrSetInterface?relay,0203H
        PUBLIC ??usbsuspDoRemoteWakeup?relay
        FUNCTION ??usbsuspDoRemoteWakeup?relay,0203H
        PUBWEAK ADCCON1
        PUBWEAK ADCCON3
        PUBWEAK ADCH
        PUBWEAK CLKCONCMD
        PUBWEAK DMA0CFGH
        PUBWEAK DMA0CFGL
        PUBWEAK DMAARM
        PUBWEAK DMAIRQ
        PUBLIC HalFlashErase
        FUNCTION HalFlashErase,0203H
        ARGFRAME XSTACK, 0, STACK
        LOCFRAME ISTACK, 2, STACK
        PUBLIC HalFlashRead
        FUNCTION HalFlashRead,0203H
        ARGFRAME XSTACK, 22, STACK
        ARGFRAME IOVERLAY, 0, STATIC
        ARGFRAME DOVERLAY, 0, STATIC
        LOCFRAME ISTACK, 1, STACK
        LOCFRAME XSTACK, 12, STACK
        PUBLIC HalFlashWrite
        FUNCTION HalFlashWrite,0203H
        ARGFRAME XSTACK, 22, STACK
        ARGFRAME IOVERLAY, 0, STATIC
        ARGFRAME DOVERLAY, 0, STATIC
        LOCFRAME XSTACK, 10, STACK
        PUBWEAK IEN2
        PUBWEAK MEMCTR
        PUBWEAK P2IFG
        PUBWEAK P2INP
        PUBWEAK SLEEPSTA
        PUBWEAK ST0
        PUBWEAK ST1
        PUBWEAK ST2
        PUBLIC UBL_RC_IMG_PG_BEG
        PUBLIC UBL_RC_IMG_PG_END
        PUBWEAK WDCTL
        PUBWEAK _A_IEN0
        PUBWEAK _A_IEN1
        PUBWEAK _A_IRCON2
        PUBWEAK __Constant_7d
        PUBLIC __low_level_init
        FUNCTION __low_level_init,021203H
        ARGFRAME XSTACK, 0, STACK
        LOCFRAME XSTACK, 11, STACK
        PUBLIC dmaCh0
        PUBLIC hexDigit
        PUBLIC main
        FUNCTION main,021a03H
        ARGFRAME XSTACK, 0, STACK
        PUBLIC pFnSuspendEnterHook
        PUBLIC pFnSuspendExitHook
        PUBLIC pgBuf
        PUBLIC ublAesAuth
        FUNCTION ublAesAuth,021203H
        ARGFRAME XSTACK, 0, STACK
        LOCFRAME XSTACK, 12, STACK
        PUBLIC ublAesCrypt
        FUNCTION ublAesCrypt,0203H
        ARGFRAME XSTACK, 0, STACK
        PUBLIC ublCfg
        FUNCTION ublCfg,021203H
        ARGFRAME XSTACK, 0, STACK
        LOCFRAME ISTACK, 2, STACK
        LOCFRAME XSTACK, 16, STACK
        PUBLIC ublExec
        FUNCTION ublExec,021203H
        ARGFRAME XSTACK, 0, STACK
        ARGFRAME IOVERLAY, 0, STATIC
        ARGFRAME DOVERLAY, 0, STATIC
        LOCFRAME ISTACK, 1, STACK
        LOCFRAME XSTACK, 16, STACK
        PUBLIC ublInit
        FUNCTION ublInit,021203H
        ARGFRAME XSTACK, 0, STACK
        ARGFRAME IOVERLAY, 0, STATIC
        ARGFRAME DOVERLAY, 0, STATIC
        LOCFRAME ISTACK, 2, STACK
        LOCFRAME XSTACK, 22, STACK
        PUBLIC ublJump
        FUNCTION ublJump,080203H
        ARGFRAME XSTACK, 20, STACK
        ARGFRAME IOVERLAY, 0, STATIC
        ARGFRAME DOVERLAY, 0, STATIC
        PUBLIC ublMD
        PUBLIC ublMassErase
        FUNCTION ublMassErase,0203H
        ARGFRAME XSTACK, 14, STACK
        ARGFRAME IOVERLAY, 0, STATIC
        ARGFRAME DOVERLAY, 0, STATIC
        LOCFRAME ISTACK, 3, STACK
        PUBLIC usbSetupData
        PUBLIC usbSetupHeader
        PUBLIC usbdpFindNext
        FUNCTION usbdpFindNext,0203H
        ARGFRAME XSTACK, 19, STACK
        ARGFRAME IOVERLAY, 0, STATIC
        ARGFRAME DOVERLAY, 0, STATIC
        LOCFRAME ISTACK, 2, STACK
        PUBLIC usbdpGetConfigurationDesc
        FUNCTION usbdpGetConfigurationDesc,021203H
        ARGFRAME XSTACK, 14, STACK
        ARGFRAME IOVERLAY, 0, STATIC
        ARGFRAME DOVERLAY, 0, STATIC
        LOCFRAME XSTACK, 10, STACK
        PUBLIC usbdpGetDeviceDesc
        FUNCTION usbdpGetDeviceDesc,021203H
        ARGFRAME XSTACK, 14, STACK
        ARGFRAME IOVERLAY, 0, STATIC
        ARGFRAME DOVERLAY, 0, STATIC
        LOCFRAME ISTACK, 2, STACK
        PUBLIC usbdpGetInterfaceDesc
        FUNCTION usbdpGetInterfaceDesc,021203H
        ARGFRAME XSTACK, 12, STACK
        ARGFRAME IOVERLAY, 0, STATIC
        ARGFRAME DOVERLAY, 0, STATIC
        LOCFRAME XSTACK, 12, STACK
        PUBLIC usbdpGetStringDesc
        FUNCTION usbdpGetStringDesc,0203H
        ARGFRAME XSTACK, 14, STACK
        ARGFRAME IOVERLAY, 0, STATIC
        ARGFRAME DOVERLAY, 0, STATIC
        LOCFRAME ISTACK, 2, STACK
        LOCFRAME XSTACK, 18, STACK
        PUBLIC usbdpInit
        FUNCTION usbdpInit,0203H
        ARGFRAME XSTACK, 0, STACK
        LOCFRAME ISTACK, 2, STACK
        PUBLIC usbfwData
        PUBLIC usbfwInit
        FUNCTION usbfwInit,021203H
        ARGFRAME XSTACK, 0, STACK
        LOCFRAME ISTACK, 2, STACK
        PUBLIC usbfwReadFifo
        FUNCTION usbfwReadFifo,0203H
        ARGFRAME XSTACK, 14, STACK
        ARGFRAME IOVERLAY, 0, STATIC
        ARGFRAME DOVERLAY, 0, STATIC
        LOCFRAME ISTACK, 1, STACK
        LOCFRAME XSTACK, 11, STACK
        PUBLIC usbfwResetHandler
        FUNCTION usbfwResetHandler,021203H
        ARGFRAME XSTACK, 0, STACK
        LOCFRAME ISTACK, 2, STACK
        PUBLIC usbfwSetAllEpStatus
        FUNCTION usbfwSetAllEpStatus,0203H
        ARGFRAME XSTACK, 12, STACK
        ARGFRAME IOVERLAY, 0, STATIC
        ARGFRAME DOVERLAY, 0, STATIC
        LOCFRAME ISTACK, 1, STACK
        LOCFRAME XSTACK, 10, STACK
        PUBLIC usbfwSetupHandler
        FUNCTION usbfwSetupHandler,021203H
        ARGFRAME XSTACK, 0, STACK
        LOCFRAME XSTACK, 14, STACK
        PUBLIC usbfwWriteFifo
        FUNCTION usbfwWriteFifo,0203H
        ARGFRAME XSTACK, 14, STACK
        ARGFRAME IOVERLAY, 0, STATIC
        ARGFRAME DOVERLAY, 0, STATIC
        LOCFRAME ISTACK, 1, STACK
        LOCFRAME XSTACK, 11, STACK
        PUBLIC usbirqData
        PUBLIC usbirqHandler
        FUNCTION usbirqHandler,021203H
        ARGFRAME XSTACK, 0, STACK
        LOCFRAME XSTACK, 10, STACK
        PUBLIC usbirqInit
        FUNCTION usbirqInit,0203H
        ARGFRAME XSTACK, 0, STACK
        LOCFRAME XSTACK, 10, STACK
        PUBLIC usbsrClearFeature
        FUNCTION usbsrClearFeature,021203H
        ARGFRAME XSTACK, 11, STACK
        ARGFRAME IOVERLAY, 0, STATIC
        ARGFRAME DOVERLAY, 0, STATIC
        LOCFRAME ISTACK, 2, STACK
        PUBLIC usbsrGetConfiguration
        FUNCTION usbsrGetConfiguration,0203H
        ARGFRAME XSTACK, 11, STACK
        ARGFRAME IOVERLAY, 0, STATIC
        ARGFRAME DOVERLAY, 0, STATIC
        LOCFRAME ISTACK, 2, STACK
        PUBLIC usbsrGetDescriptor
        FUNCTION usbsrGetDescriptor,021203H
        ARGFRAME XSTACK, 11, STACK
        ARGFRAME IOVERLAY, 0, STATIC
        ARGFRAME DOVERLAY, 0, STATIC
        LOCFRAME ISTACK, 1, STACK
        LOCFRAME XSTACK, 14, STACK
        PUBLIC usbsrGetInterface
        FUNCTION usbsrGetInterface,0203H
        ARGFRAME XSTACK, 11, STACK
        ARGFRAME IOVERLAY, 0, STATIC
        ARGFRAME DOVERLAY, 0, STATIC
        LOCFRAME XSTACK, 11, STACK
        PUBLIC usbsrGetStatus
        FUNCTION usbsrGetStatus,0203H
        ARGFRAME XSTACK, 11, STACK
        ARGFRAME IOVERLAY, 0, STATIC
        ARGFRAME DOVERLAY, 0, STATIC
        LOCFRAME XSTACK, 10, STACK
        PUBLIC usbsrSetAddress
        FUNCTION usbsrSetAddress,0203H
        ARGFRAME XSTACK, 11, STACK
        ARGFRAME IOVERLAY, 0, STATIC
        ARGFRAME DOVERLAY, 0, STATIC
        LOCFRAME ISTACK, 2, STACK
        PUBLIC usbsrSetConfiguration
        FUNCTION usbsrSetConfiguration,021203H
        ARGFRAME XSTACK, 11, STACK
        ARGFRAME IOVERLAY, 0, STATIC
        ARGFRAME DOVERLAY, 0, STATIC
        LOCFRAME XSTACK, 12, STACK
        PUBLIC usbsrSetFeature
        FUNCTION usbsrSetFeature,021203H
        ARGFRAME XSTACK, 11, STACK
        ARGFRAME IOVERLAY, 0, STATIC
        ARGFRAME DOVERLAY, 0, STATIC
        LOCFRAME ISTACK, 2, STACK
        PUBLIC usbsrSetInterface
        FUNCTION usbsrSetInterface,021203H
        ARGFRAME XSTACK, 11, STACK
        ARGFRAME IOVERLAY, 0, STATIC
        ARGFRAME DOVERLAY, 0, STATIC
        LOCFRAME ISTACK, 1, STACK
        LOCFRAME XSTACK, 12, STACK
        PUBLIC usbsuspDoRemoteWakeup
        FUNCTION usbsuspDoRemoteWakeup,021203H
        ARGFRAME XSTACK, 0, STACK
        LOCFRAME XSTACK, 9, STACK
        
          CFI Names cfiNames0
          CFI StackFrame CFA_SP SP IDATA
          CFI StackFrame CFA_PSP16 PSP16 XDATA
          CFI StackFrame CFA_XSP16 XSP16 XDATA
          CFI StaticOverlayFrame CFA_IOVERLAY IOVERLAY
          CFI StaticOverlayFrame CFA_DOVERLAY DOVERLAY
          CFI Resource `PSW.CY`:1, `B.BR0`:1, `B.BR1`:1, `B.BR2`:1, `B.BR3`:1
          CFI Resource `B.BR4`:1, `B.BR5`:1, `B.BR6`:1, `B.BR7`:1, `VB.BR8`:1
          CFI Resource `VB.BR9`:1, `VB.BR10`:1, `VB.BR11`:1, `VB.BR12`:1
          CFI Resource `VB.BR13`:1, `VB.BR14`:1, `VB.BR15`:1, VB:8, B:8, A:8
          CFI Resource PSW:8, DPL0:8, DPH0:8, R0:8, R1:8, R2:8, R3:8, R4:8, R5:8
          CFI Resource R6:8, R7:8, V0:8, V1:8, V2:8, V3:8, V4:8, V5:8, V6:8, V7:8
          CFI Resource V8:8, V9:8, V10:8, V11:8, V12:8, V13:8, V14:8, V15:8, SP:8
          CFI Resource PSPH:8, PSPL:8, PSP16:16, XSPH:8, XSPL:8, XSP16:16
          CFI VirtualResource ?RET:24
          CFI Resource ?BRET_EXT:8
          CFI VirtualResource ?RET_HIGH:8, ?RET_LOW:8
          CFI ResourceParts PSP16 PSPH, PSPL
          CFI ResourceParts XSP16 XSPH, XSPL
          CFI ResourceParts ?RET ?BRET_EXT, ?RET_HIGH, ?RET_LOW
          CFI EndNames cfiNames0
        
          CFI Common cfiCommon0 Using cfiNames0
          CFI CodeAlign 1
          CFI DataAlign -1
          CFI ReturnAddress ?RET CODE
          CFI CFA_DOVERLAY Used
          CFI CFA_IOVERLAY Used
          CFI CFA_SP SP+-3
          CFI CFA_PSP16 PSP16+0
          CFI CFA_XSP16 XSP16+0
          CFI `PSW.CY` SameValue
          CFI `B.BR0` SameValue
          CFI `B.BR1` SameValue
          CFI `B.BR2` SameValue
          CFI `B.BR3` SameValue
          CFI `B.BR4` SameValue
          CFI `B.BR5` SameValue
          CFI `B.BR6` SameValue
          CFI `B.BR7` SameValue
          CFI `VB.BR8` SameValue
          CFI `VB.BR9` SameValue
          CFI `VB.BR10` SameValue
          CFI `VB.BR11` SameValue
          CFI `VB.BR12` SameValue
          CFI `VB.BR13` SameValue
          CFI `VB.BR14` SameValue
          CFI `VB.BR15` SameValue
          CFI VB SameValue
          CFI B Undefined
          CFI A Undefined
          CFI PSW SameValue
          CFI DPL0 SameValue
          CFI DPH0 SameValue
          CFI R0 Undefined
          CFI R1 Undefined
          CFI R2 Undefined
          CFI R3 Undefined
          CFI R4 Undefined
          CFI R5 Undefined
          CFI R6 SameValue
          CFI R7 SameValue
          CFI V0 SameValue
          CFI V1 SameValue
          CFI V2 SameValue
          CFI V3 SameValue
          CFI V4 SameValue
          CFI V5 SameValue
          CFI V6 SameValue
          CFI V7 SameValue
          CFI V8 SameValue
          CFI V9 SameValue
          CFI V10 SameValue
          CFI V11 SameValue
          CFI V12 SameValue
          CFI V13 SameValue
          CFI V14 SameValue
          CFI V15 SameValue
          CFI PSPH Undefined
          CFI PSPL Undefined
          CFI XSPH Undefined
          CFI XSPL Undefined
          CFI ?RET Concat
          CFI ?BRET_EXT Frame(CFA_SP, 3)
          CFI ?RET_HIGH Frame(CFA_SP, 2)
          CFI ?RET_LOW Frame(CFA_SP, 1)
          CFI EndCommon cfiCommon0
        
        
          CFI Common cfiCommon1 Using cfiNames0
          CFI CodeAlign 1
          CFI DataAlign -1
          CFI ReturnAddress ?RET CODE
          CFI CFA_DOVERLAY Used
          CFI CFA_IOVERLAY Used
          CFI CFA_SP SP+-2
          CFI CFA_PSP16 PSP16+0
          CFI CFA_XSP16 XSP16+0
          CFI `PSW.CY` SameValue
          CFI `B.BR0` SameValue
          CFI `B.BR1` SameValue
          CFI `B.BR2` SameValue
          CFI `B.BR3` SameValue
          CFI `B.BR4` SameValue
          CFI `B.BR5` SameValue
          CFI `B.BR6` SameValue
          CFI `B.BR7` SameValue
          CFI `VB.BR8` SameValue
          CFI `VB.BR9` SameValue
          CFI `VB.BR10` SameValue
          CFI `VB.BR11` SameValue
          CFI `VB.BR12` SameValue
          CFI `VB.BR13` SameValue
          CFI `VB.BR14` SameValue
          CFI `VB.BR15` SameValue
          CFI VB SameValue
          CFI B SameValue
          CFI A SameValue
          CFI PSW SameValue
          CFI DPL0 SameValue
          CFI DPH0 SameValue
          CFI R0 SameValue
          CFI R1 SameValue
          CFI R2 SameValue
          CFI R3 SameValue
          CFI R4 SameValue
          CFI R5 SameValue
          CFI R6 SameValue
          CFI R7 SameValue
          CFI V0 SameValue
          CFI V1 SameValue
          CFI V2 SameValue
          CFI V3 SameValue
          CFI V4 SameValue
          CFI V5 SameValue
          CFI V6 SameValue
          CFI V7 SameValue
          CFI V8 SameValue
          CFI V9 SameValue
          CFI V10 SameValue
          CFI V11 SameValue
          CFI V12 SameValue
          CFI V13 SameValue
          CFI V14 SameValue
          CFI V15 SameValue
          CFI PSPH Undefined
          CFI PSPL Undefined
          CFI XSPH Undefined
          CFI XSPL Undefined
          CFI ?RET Concat
          CFI ?BRET_EXT SameValue
          CFI ?RET_HIGH Frame(CFA_SP, 2)
          CFI ?RET_LOW Frame(CFA_SP, 1)
          CFI EndCommon cfiCommon1
        
        
          CFI Common cfiCommon2 Using cfiNames0
          CFI CodeAlign 1
          CFI DataAlign -1
          CFI ReturnAddress ?RET CODE
          CFI CFA_DOVERLAY Used
          CFI CFA_IOVERLAY Used
          CFI CFA_SP SP+-2
          CFI CFA_PSP16 PSP16+0
          CFI CFA_XSP16 XSP16+0
          CFI `PSW.CY` SameValue
          CFI `B.BR0` SameValue
          CFI `B.BR1` SameValue
          CFI `B.BR2` SameValue
          CFI `B.BR3` SameValue
          CFI `B.BR4` SameValue
          CFI `B.BR5` SameValue
          CFI `B.BR6` SameValue
          CFI `B.BR7` SameValue
          CFI `VB.BR8` SameValue
          CFI `VB.BR9` SameValue
          CFI `VB.BR10` SameValue
          CFI `VB.BR11` SameValue
          CFI `VB.BR12` SameValue
          CFI `VB.BR13` SameValue
          CFI `VB.BR14` SameValue
          CFI `VB.BR15` SameValue
          CFI VB SameValue
          CFI B Undefined
          CFI A Undefined
          CFI PSW SameValue
          CFI DPL0 SameValue
          CFI DPH0 SameValue
          CFI R0 Undefined
          CFI R1 Undefined
          CFI R2 Undefined
          CFI R3 Undefined
          CFI R4 Undefined
          CFI R5 Undefined
          CFI R6 SameValue
          CFI R7 SameValue
          CFI V0 SameValue
          CFI V1 SameValue
          CFI V2 SameValue
          CFI V3 SameValue
          CFI V4 SameValue
          CFI V5 SameValue
          CFI V6 SameValue
          CFI V7 SameValue
          CFI V8 SameValue
          CFI V9 SameValue
          CFI V10 SameValue
          CFI V11 SameValue
          CFI V12 SameValue
          CFI V13 SameValue
          CFI V14 SameValue
          CFI V15 SameValue
          CFI PSPH Undefined
          CFI PSPL Undefined
          CFI XSPH Undefined
          CFI XSPL Undefined
          CFI ?RET Concat
          CFI ?BRET_EXT SameValue
          CFI ?RET_HIGH Frame(CFA_SP, 2)
          CFI ?RET_LOW Frame(CFA_SP, 1)
          CFI EndCommon cfiCommon2
        
halMcuWaitMs        SYMBOL "halMcuWaitMs"
??halMcuWaitMs?relay SYMBOL "?relay", halMcuWaitMs
memcmp              SYMBOL "memcmp"
??memcmp?relay      SYMBOL "?relay", memcmp
memcpy              SYMBOL "memcpy"
??memcpy?relay      SYMBOL "?relay", memcpy
usb_msd_init        SYMBOL "usb_msd_init"
??usb_msd_init?relay SYMBOL "?relay", usb_msd_init
usb_msd_poll        SYMBOL "usb_msd_poll"
??usb_msd_poll?relay SYMBOL "?relay", usb_msd_poll
usb_msd_uninit      SYMBOL "usb_msd_uninit"
??usb_msd_uninit?relay SYMBOL "?relay", usb_msd_uninit
usbcrHookProcessIn  SYMBOL "usbcrHookProcessIn"
??usbcrHookProcessIn?relay SYMBOL "?relay", usbcrHookProcessIn
usbcrHookProcessOut SYMBOL "usbcrHookProcessOut"
??usbcrHookProcessOut?relay SYMBOL "?relay", usbcrHookProcessOut
usbirqHookProcessEvents SYMBOL "usbirqHookProcessEvents"
??usbirqHookProcessEvents?relay SYMBOL "?relay", usbirqHookProcessEvents
usbsrHookClearFeature SYMBOL "usbsrHookClearFeature"
??usbsrHookClearFeature?relay SYMBOL "?relay", usbsrHookClearFeature
usbsrHookProcessEvent SYMBOL "usbsrHookProcessEvent"
??usbsrHookProcessEvent?relay SYMBOL "?relay", usbsrHookProcessEvent
usbsrHookSetFeature SYMBOL "usbsrHookSetFeature"
??usbsrHookSetFeature?relay SYMBOL "?relay", usbsrHookSetFeature
usbvrHookProcessIn  SYMBOL "usbvrHookProcessIn"
??usbvrHookProcessIn?relay SYMBOL "?relay", usbvrHookProcessIn
usbvrHookProcessOut SYMBOL "usbvrHookProcessOut"
??usbvrHookProcessOut?relay SYMBOL "?relay", usbvrHookProcessOut
HalFlashErase       SYMBOL "HalFlashErase"
??HalFlashErase?relay SYMBOL "?relay", HalFlashErase
HalFlashRead        SYMBOL "HalFlashRead"
??HalFlashRead?relay SYMBOL "?relay", HalFlashRead
HalFlashWrite       SYMBOL "HalFlashWrite"
??HalFlashWrite?relay SYMBOL "?relay", HalFlashWrite
main                SYMBOL "main"
??main?relay        SYMBOL "?relay", main
ublAesAuth          SYMBOL "ublAesAuth"
??ublAesAuth?relay  SYMBOL "?relay", ublAesAuth
ublAesCrypt         SYMBOL "ublAesCrypt"
??ublAesCrypt?relay SYMBOL "?relay", ublAesCrypt
ublCfg              SYMBOL "ublCfg"
??ublCfg?relay      SYMBOL "?relay", ublCfg
ublExec             SYMBOL "ublExec"
??ublExec?relay     SYMBOL "?relay", ublExec
ublInit             SYMBOL "ublInit"
??ublInit?relay     SYMBOL "?relay", ublInit
ublJump             SYMBOL "ublJump"
??ublJump?relay     SYMBOL "?relay", ublJump
ublMassErase        SYMBOL "ublMassErase"
??ublMassErase?relay SYMBOL "?relay", ublMassErase
usbdpFindNext       SYMBOL "usbdpFindNext"
??usbdpFindNext?relay SYMBOL "?relay", usbdpFindNext
usbdpGetConfigurationDesc SYMBOL "usbdpGetConfigurationDesc"
??usbdpGetConfigurationDesc?relay SYMBOL "?relay", usbdpGetConfigurationDesc
usbdpGetDeviceDesc  SYMBOL "usbdpGetDeviceDesc"
??usbdpGetDeviceDesc?relay SYMBOL "?relay", usbdpGetDeviceDesc
usbdpGetInterfaceDesc SYMBOL "usbdpGetInterfaceDesc"
??usbdpGetInterfaceDesc?relay SYMBOL "?relay", usbdpGetInterfaceDesc
usbdpGetStringDesc  SYMBOL "usbdpGetStringDesc"
??usbdpGetStringDesc?relay SYMBOL "?relay", usbdpGetStringDesc
usbdpInit           SYMBOL "usbdpInit"
??usbdpInit?relay   SYMBOL "?relay", usbdpInit
usbfwInit           SYMBOL "usbfwInit"
??usbfwInit?relay   SYMBOL "?relay", usbfwInit
usbfwReadFifo       SYMBOL "usbfwReadFifo"
??usbfwReadFifo?relay SYMBOL "?relay", usbfwReadFifo
usbfwResetHandler   SYMBOL "usbfwResetHandler"
??usbfwResetHandler?relay SYMBOL "?relay", usbfwResetHandler
usbfwSetAllEpStatus SYMBOL "usbfwSetAllEpStatus"
??usbfwSetAllEpStatus?relay SYMBOL "?relay", usbfwSetAllEpStatus
usbfwSetupHandler   SYMBOL "usbfwSetupHandler"
??usbfwSetupHandler?relay SYMBOL "?relay", usbfwSetupHandler
usbfwWriteFifo      SYMBOL "usbfwWriteFifo"
??usbfwWriteFifo?relay SYMBOL "?relay", usbfwWriteFifo
usbirqHandler       SYMBOL "usbirqHandler"
??usbirqHandler?relay SYMBOL "?relay", usbirqHandler
usbirqInit          SYMBOL "usbirqInit"
??usbirqInit?relay  SYMBOL "?relay", usbirqInit
usbsrClearFeature   SYMBOL "usbsrClearFeature"
??usbsrClearFeature?relay SYMBOL "?relay", usbsrClearFeature
usbsrGetConfiguration SYMBOL "usbsrGetConfiguration"
??usbsrGetConfiguration?relay SYMBOL "?relay", usbsrGetConfiguration
usbsrGetDescriptor  SYMBOL "usbsrGetDescriptor"
??usbsrGetDescriptor?relay SYMBOL "?relay", usbsrGetDescriptor
usbsrGetInterface   SYMBOL "usbsrGetInterface"
??usbsrGetInterface?relay SYMBOL "?relay", usbsrGetInterface
usbsrGetStatus      SYMBOL "usbsrGetStatus"
??usbsrGetStatus?relay SYMBOL "?relay", usbsrGetStatus
usbsrSetAddress     SYMBOL "usbsrSetAddress"
??usbsrSetAddress?relay SYMBOL "?relay", usbsrSetAddress
usbsrSetConfiguration SYMBOL "usbsrSetConfiguration"
??usbsrSetConfiguration?relay SYMBOL "?relay", usbsrSetConfiguration
usbsrSetFeature     SYMBOL "usbsrSetFeature"
??usbsrSetFeature?relay SYMBOL "?relay", usbsrSetFeature
usbsrSetInterface   SYMBOL "usbsrSetInterface"
??usbsrSetInterface?relay SYMBOL "?relay", usbsrSetInterface
usbsuspDoRemoteWakeup SYMBOL "usbsuspDoRemoteWakeup"
??usbsuspDoRemoteWakeup?relay SYMBOL "?relay", usbsuspDoRemoteWakeup

        EXTERN ??halMcuWaitMs?relay
        FUNCTION ??halMcuWaitMs?relay,00H
        EXTERN ??memcmp?relay
        FUNCTION ??memcmp?relay,00H
        EXTERN ??memcpy?relay
        FUNCTION ??memcpy?relay,00H
        EXTERN ??usb_msd_init?relay
        FUNCTION ??usb_msd_init?relay,00H
        EXTERN ??usb_msd_poll?relay
        FUNCTION ??usb_msd_poll?relay,00H
        EXTERN ??usb_msd_uninit?relay
        FUNCTION ??usb_msd_uninit?relay,00H
        EXTERN ??usbcrHookProcessIn?relay
        FUNCTION ??usbcrHookProcessIn?relay,00H
        EXTERN ??usbcrHookProcessOut?relay
        FUNCTION ??usbcrHookProcessOut?relay,00H
        EXTERN ??usbirqHookProcessEvents?relay
        FUNCTION ??usbirqHookProcessEvents?relay,00H
        EXTERN ??usbsrHookClearFeature?relay
        FUNCTION ??usbsrHookClearFeature?relay,00H
        EXTERN ??usbsrHookProcessEvent?relay
        FUNCTION ??usbsrHookProcessEvent?relay,00H
        EXTERN ??usbsrHookSetFeature?relay
        FUNCTION ??usbsrHookSetFeature?relay,00H
        EXTERN ??usbvrHookProcessIn?relay
        FUNCTION ??usbvrHookProcessIn?relay,00H
        EXTERN ??usbvrHookProcessOut?relay
        FUNCTION ??usbvrHookProcessOut?relay,00H
        EXTERN halMcuWaitMs
        FUNCTION halMcuWaitMs,0202H
        ARGFRAME ISTACK, 0, STACK
        ARGFRAME PSTACK, 0, STACK
        ARGFRAME XSTACK, 9, STACK
        ARGFRAME IOVERLAY, 0, STATIC
        ARGFRAME DOVERLAY, 0, STATIC
        EXTERN memcmp
        FUNCTION memcmp,010202H
        ARGFRAME ISTACK, 0, STACK
        ARGFRAME PSTACK, 0, STACK
        ARGFRAME XSTACK, 22, STACK
        ARGFRAME IOVERLAY, 0, STATIC
        ARGFRAME DOVERLAY, 0, STATIC
        EXTERN memcpy
        FUNCTION memcpy,010202H
        ARGFRAME ISTACK, 0, STACK
        ARGFRAME PSTACK, 0, STACK
        ARGFRAME XSTACK, 16, STACK
        ARGFRAME IOVERLAY, 0, STATIC
        ARGFRAME DOVERLAY, 0, STATIC
        EXTERN usbDescriptorMarker
        EXTERN usb_msd_init
        FUNCTION usb_msd_init,0202H
        ARGFRAME ISTACK, 0, STACK
        ARGFRAME PSTACK, 0, STACK
        ARGFRAME XSTACK, 20, STACK
        ARGFRAME IOVERLAY, 0, STATIC
        ARGFRAME DOVERLAY, 0, STATIC
        EXTERN usb_msd_poll
        FUNCTION usb_msd_poll,0202H
        ARGFRAME ISTACK, 0, STACK
        ARGFRAME PSTACK, 0, STACK
        ARGFRAME XSTACK, 16, STACK
        ARGFRAME IOVERLAY, 0, STATIC
        ARGFRAME DOVERLAY, 0, STATIC
        EXTERN usb_msd_uninit
        FUNCTION usb_msd_uninit,0202H
        ARGFRAME ISTACK, 0, STACK
        ARGFRAME PSTACK, 0, STACK
        ARGFRAME XSTACK, 16, STACK
        ARGFRAME IOVERLAY, 0, STATIC
        ARGFRAME DOVERLAY, 0, STATIC
        EXTERN usbcrHookProcessIn
        FUNCTION usbcrHookProcessIn,0602H
        ARGFRAME ISTACK, 0, STACK
        ARGFRAME PSTACK, 0, STACK
        ARGFRAME XSTACK, 11, STACK
        ARGFRAME IOVERLAY, 0, STATIC
        ARGFRAME DOVERLAY, 0, STATIC
        EXTERN usbcrHookProcessOut
        FUNCTION usbcrHookProcessOut,0602H
        ARGFRAME ISTACK, 0, STACK
        ARGFRAME PSTACK, 0, STACK
        ARGFRAME XSTACK, 11, STACK
        ARGFRAME IOVERLAY, 0, STATIC
        ARGFRAME DOVERLAY, 0, STATIC
        EXTERN usbirqHookProcessEvents
        FUNCTION usbirqHookProcessEvents,0202H
        ARGFRAME ISTACK, 0, STACK
        ARGFRAME PSTACK, 0, STACK
        ARGFRAME XSTACK, 10, STACK
        ARGFRAME IOVERLAY, 0, STATIC
        ARGFRAME DOVERLAY, 0, STATIC
        EXTERN usbsrHookClearFeature
        FUNCTION usbsrHookClearFeature,0202H
        ARGFRAME ISTACK, 2, STACK
        ARGFRAME PSTACK, 0, STACK
        ARGFRAME XSTACK, 0, STACK
        ARGFRAME IOVERLAY, 0, STATIC
        ARGFRAME DOVERLAY, 0, STATIC
        EXTERN usbsrHookProcessEvent
        FUNCTION usbsrHookProcessEvent,0202H
        ARGFRAME ISTACK, 0, STACK
        ARGFRAME PSTACK, 0, STACK
        ARGFRAME XSTACK, 12, STACK
        ARGFRAME IOVERLAY, 0, STATIC
        ARGFRAME DOVERLAY, 0, STATIC
        EXTERN usbsrHookSetFeature
        FUNCTION usbsrHookSetFeature,0202H
        ARGFRAME ISTACK, 2, STACK
        ARGFRAME PSTACK, 0, STACK
        ARGFRAME XSTACK, 0, STACK
        ARGFRAME IOVERLAY, 0, STATIC
        ARGFRAME DOVERLAY, 0, STATIC
        EXTERN usbvrHookProcessIn
        FUNCTION usbvrHookProcessIn,0602H
        ARGFRAME ISTACK, 0, STACK
        ARGFRAME PSTACK, 0, STACK
        ARGFRAME XSTACK, 11, STACK
        ARGFRAME IOVERLAY, 0, STATIC
        ARGFRAME DOVERLAY, 0, STATIC
        EXTERN usbvrHookProcessOut
        FUNCTION usbvrHookProcessOut,0602H
        ARGFRAME ISTACK, 0, STACK
        ARGFRAME PSTACK, 0, STACK
        ARGFRAME XSTACK, 11, STACK
        ARGFRAME IOVERLAY, 0, STATIC
        ARGFRAME DOVERLAY, 0, STATIC

// C:\Texas Instruments\BLE-CC254x-1.4.0\Projects\ble\util\UBL\soc_8051\usb_msd\app\ubl_exec.c
//    1 /**************************************************************************************************
//    2   Filename:       ubl_exec.c
//    3   Revised:        $Date: 2012-09-07 14:26:14 -0700 (Fri, 07 Sep 2012) $
//    4   Revision:       $Revision: 31498 $
//    5 
//    6   Description:
//    7 
//    8   This module implements the executive functionality of a Universal Boot Loader
//    9   for an 8051-based SOC using the USB transport by MSD.
//   10 
//   11 
//   12   Copyright 2011-2012 Texas Instruments Incorporated. All rights reserved.
//   13 
//   14   IMPORTANT: Your use of this Software is limited to those specific rights
//   15   granted under the terms of a software license agreement between the user
//   16   who downloaded the software, his/her employer (which must be your employer)
//   17   and Texas Instruments Incorporated (the "License").  You may not use this
//   18   Software unless you agree to abide by the terms of the License. The License
//   19   limits your use, and you acknowledge, that the Software may not be modified,
//   20   copied or distributed unless embedded on a Texas Instruments microcontroller
//   21   or used solely and exclusively in conjunction with a Texas Instruments radio
//   22   frequency transceiver, which is integrated into your product.  Other than for
//   23   the foregoing purpose, you may not use, reproduce, copy, prepare derivative
//   24   works of, modify, distribute, perform, display or sell this Software and/or
//   25   its documentation for any purpose.
//   26 
//   27   YOU FURTHER ACKNOWLEDGE AND AGREE THAT THE SOFTWARE AND DOCUMENTATION ARE
//   28   PROVIDED “AS IS” WITHOUT WARRANTY OF ANY KIND, EITHER EXPRESS OR IMPLIED,
//   29   INCLUDING WITHOUT LIMITATION, ANY WARRANTY OF MERCHANTABILITY, TITLE,
//   30   NON-INFRINGEMENT AND FITNESS FOR A PARTICULAR PURPOSE. IN NO EVENT SHALL
//   31   TEXAS INSTRUMENTS OR ITS LICENSORS BE LIABLE OR OBLIGATED UNDER CONTRACT,
//   32   NEGLIGENCE, STRICT LIABILITY, CONTRIBUTION, BREACH OF WARRANTY, OR OTHER
//   33   LEGAL EQUITABLE THEORY ANY DIRECT OR INDIRECT DAMAGES OR EXPENSES
//   34   INCLUDING BUT NOT LIMITED TO ANY INCIDENTAL, SPECIAL, INDIRECT, PUNITIVE
//   35   OR CONSEQUENTIAL DAMAGES, LOST PROFITS OR LOST DATA, COST OF PROCUREMENT
//   36   OF SUBSTITUTE GOODS, TECHNOLOGY, SERVICES, OR ANY CLAIMS BY THIRD PARTIES
//   37   (INCLUDING BUT NOT LIMITED TO ANY DEFENSE THEREOF), OR OTHER SIMILAR COSTS.
//   38 
//   39   Should you have any questions regarding your right to use this Software,
//   40   contact Texas Instruments Incorporated at www.TI.com.
//   41 **************************************************************************************************/
//   42 
//   43 /* ------------------------------------------------------------------------------------------------
//   44  *                                          Includes
//   45  * ------------------------------------------------------------------------------------------------
//   46  */
//   47 
//   48 #include <stddef.h>
//   49 #include <string.h>
//   50 
//   51 #include "hal_board_cfg.h"

        ASEGN SFR_AN:DATA:NOROOT,08bH
// unsigned char volatile __sfr P2IFG
P2IFG:
        DATA8
        DS 1

        ASEGN SFR_AN:DATA:NOROOT,095H
// unsigned char volatile __sfr ST0
ST0:
        DATA8
        DS 1

        ASEGN SFR_AN:DATA:NOROOT,096H
// unsigned char volatile __sfr ST1
ST1:
        DATA8
        DS 1

        ASEGN SFR_AN:DATA:NOROOT,097H
// unsigned char volatile __sfr ST2
ST2:
        DATA8
        DS 1

        ASEGN SFR_AN:DATA:NOROOT,09aH
// unsigned char volatile __sfr IEN2
IEN2:
        DATA8
        DS 1

        ASEGN SFR_AN:DATA:NOROOT,09dH
// unsigned char volatile __sfr SLEEPSTA
SLEEPSTA:
        DATA8
        DS 1

        ASEGN SFR_AN:DATA:NOROOT,0a8H
// union <unnamed> volatile __sfr _A_IEN0
_A_IEN0:
        DATA8
        DS 1

        ASEGN SFR_AN:DATA:NOROOT,0b4H
// unsigned char volatile __sfr ADCCON1
ADCCON1:
        DATA8
        DS 1

        ASEGN SFR_AN:DATA:NOROOT,0b6H
// unsigned char volatile __sfr ADCCON3
ADCCON3:
        DATA8
        DS 1

        ASEGN SFR_AN:DATA:NOROOT,0b8H
// union <unnamed> volatile __sfr _A_IEN1
_A_IEN1:
        DATA8
        DS 1

        ASEGN SFR_AN:DATA:NOROOT,0bbH
// unsigned char volatile __sfr ADCH
ADCH:
        DATA8
        DS 1

        ASEGN SFR_AN:DATA:NOROOT,0c6H
// unsigned char volatile __sfr CLKCONCMD
CLKCONCMD:
        DATA8
        DS 1

        ASEGN SFR_AN:DATA:NOROOT,0c7H
// unsigned char volatile __sfr MEMCTR
MEMCTR:
        DATA8
        DS 1

        ASEGN SFR_AN:DATA:NOROOT,0c9H
// unsigned char volatile __sfr WDCTL
WDCTL:
        DATA8
        DS 1

        ASEGN SFR_AN:DATA:NOROOT,0d1H
// unsigned char volatile __sfr DMAIRQ
DMAIRQ:
        DATA8
        DS 1

        ASEGN SFR_AN:DATA:NOROOT,0d4H
// unsigned char volatile __sfr DMA0CFGL
DMA0CFGL:
        DATA8
        DS 1

        ASEGN SFR_AN:DATA:NOROOT,0d5H
// unsigned char volatile __sfr DMA0CFGH
DMA0CFGH:
        DATA8
        DS 1

        ASEGN SFR_AN:DATA:NOROOT,0d6H
// unsigned char volatile __sfr DMAARM
DMAARM:
        DATA8
        DS 1

        ASEGN SFR_AN:DATA:NOROOT,0e8H
// union <unnamed> volatile __sfr _A_IRCON2
_A_IRCON2:
        DATA8
        DS 1

        ASEGN SFR_AN:DATA:NOROOT,0f7H
// unsigned char volatile __sfr P2INP
P2INP:
        DATA8
        DS 1
//   52 #include "hal_dma.h"
//   53 #include "hal_flash.h"
//   54 #include "hal_types.h"
//   55 #include "ubl_app.h"
//   56 #include "ubl_exec.h"
//   57 #include "usb_msd.h"
//   58 
//   59 /* ------------------------------------------------------------------------------------------------
//   60  *                                          Constants
//   61  * ------------------------------------------------------------------------------------------------
//   62  */
//   63 
//   64 #if !defined HAL_DONGLE_NANO
//   65 #define UBL_GPIO_USE
//   66 #endif
//   67 
//   68 // Define the checksum-subset of the Meta Data for checksum calculation and copying so as not to
//   69 // overwrite ong.
//   70 #define UBL_MD_CHKLEN  (offsetof(ublMetaData_t, cntDnForced) - offsetof(ublMetaData_t, chkMD))
//   71 

        RSEG XDATA_ROM_C:CONST:REORDER:NOROOT(0)
        DATA8
//   72 static const uint8 unlockedSecKey[32] =
??unlockedSecKey:
        DB 255
        DB 255
        DB 255
        DB 255
        DB 255
        DB 255
        DB 255
        DB 255
        DB 255
        DB 255
        DB 255
        DB 255
        DB 255
        DB 255
        DB 255
        DB 255
        DB 255
        DB 255
        DB 255
        DB 255
        DB 255
        DB 255
        DB 255
        DB 255
        DB 255
        DB 255
        DB 255
        DB 255
        DB 255
        DB 255
        DB 255
        DB 255
//   73 {
//   74   0xFF, 0xFF, 0xFF, 0xFF, 0xFF, 0xFF, 0xFF, 0xFF, 0xFF, 0xFF, 0xFF, 0xFF, 0xFF, 0xFF, 0xFF, 0xFF,
//   75   0xFF, 0xFF, 0xFF, 0xFF, 0xFF, 0xFF, 0xFF, 0xFF, 0xFF, 0xFF, 0xFF, 0xFF, 0xFF, 0xFF, 0xFF, 0xFF
//   76 };
//   77 
//   78 /***                 The following are "Write" addresses for HalFlashWrite().                  ***/
//   79 #define UBL_META_DATA_ADDR_WR  \ 
//   80   ((uint16)(UBL_META_DATA_PAGE * ((uint16)(HAL_FLASH_PAGE_SIZE / HAL_FLASH_WORD_SIZE))) + \ 
//   81                                   (uint16)(UBL_META_DATA_IDX / HAL_FLASH_WORD_SIZE))
//   82 
//   83 #define UBL_CNTDN_FORCED_ADDR (UBL_META_DATA_ADDR_WR + \ 
//   84                               (offsetof(ublMetaData_t, cntDnForced) / HAL_FLASH_WORD_SIZE))
//   85 #define UBL_CNTDN_SECKEY_ADDR (UBL_META_DATA_ADDR_WR + \ 
//   86                               (offsetof(ublMetaData_t, cntDnSecKey) / HAL_FLASH_WORD_SIZE))
//   87 /***                  The above are "Write" addresses for HalFlashWrite().                    ***/
//   88 
//   89 // Allow test & development with final structures and memeory map without the burden of having to
//   90 // encrypt and sign every image to download until ready with the production build.
//   91 #if !defined UBL_SECURE
//   92 #define UBL_SECURE                   FALSE
//   93 #endif
//   94 
//   95 #if UBL_SECURE
//   96 static const uint8 aesKey[KEY_BLENGTH] = {
//   97   // This dummy key must be replaced by a randomly generated key that is kept secret.
//   98   0x00, 0x01, 0x02, 0x03, 0x04, 0x05, 0x06, 0x07, 0x08, 0x09, 0x0A, 0x0B, 0x0C, 0x0D, 0x0E, 0x0F
//   99 };
//  100 #endif
//  101 
//  102 // Set UBL_SIGNER=TRUE in order to create a special boot loader that will accept
//  103 // an un-encrypted/un-authenticated image via download and then sign it and send it back
//  104 // with encryption on the read back.
//  105 #if !defined UBL_SIGNER
//  106 #define UBL_SIGNER                   FALSE
//  107 #endif
//  108 
//  109 #if UBL_SIGNER
//  110 #if !UBL_SECURE
//  111 #error Mismatched definitions for UBL_SIGNER and UBL_SECURE.
//  112 #else
//  113 #warning You built a special "Signing" boot loader - do not release to market ... internal use only.
//  114 #endif
//  115 #endif
//  116 
//  117 /* ------------------------------------------------------------------------------------------------
//  118  *                                           Macros
//  119  * ------------------------------------------------------------------------------------------------
//  120  */
//  121 
//  122 #define UBL_READ_ST(STCNT) st (             \ 
//  123   do {  /* Get the sleep timer count; ST0 must be read first & re-read to verify. */\ 
//  124     ((uint8 *) &(STCNT))[0] = ST0;          \ 
//  125   } while (((uint8 *) &(STCNT))[0] != ST0); \ 
//  126   ((uint8 *) &(STCNT))[1] = ST1;            \ 
//  127   ((uint8 *) &(STCNT))[2] = ST2;            \ 
//  128   ((uint8 *) &(STCNT))[3] = 0;              \ 
//  129 )
//  130 
//  131 /* ------------------------------------------------------------------------------------------------
//  132  *                                       Global Variables
//  133  * ------------------------------------------------------------------------------------------------
//  134  */
//  135 

        RSEG XDATA_ROM_C:CONST:REORDER:NOROOT(0)
        DATA8
//  136 const uint8 UBL_RC_IMG_PG_BEG = UBL_PAGE_FIRST;
UBL_RC_IMG_PG_BEG:
        DB 1

        RSEG XDATA_ROM_C:CONST:REORDER:NOROOT(0)
        DATA8
//  137 const uint8 UBL_RC_IMG_PG_END = UBL_PAGE_LAST;
UBL_RC_IMG_PG_END:
        DB 119
//  138 
//  139 /* ------------------------------------------------------------------------------------------------
//  140  *                                       Global Variables
//  141  * ------------------------------------------------------------------------------------------------
//  142  */
//  143 

        RSEG XDATA_N:XDATA:REORDER:NOROOT(0)
        DATA8
//  144 __no_init uint8 pgBuf[HAL_FLASH_PAGE_SIZE];  // RAM (XDATA) buffer for an Rx/Tx flash page.
pgBuf:
        DS 2048

        RSEG XDATA_N:XDATA:REORDER:NOROOT(0)
        DATA8
//  145 __no_init ublMetaData_t ublMD;
ublMD:
        DS 100
//  146 
//  147 /* ------------------------------------------------------------------------------------------------
//  148  *                                       Local Variables
//  149  * ------------------------------------------------------------------------------------------------
//  150  */
//  151 
//  152 #if defined UBL_GPIO_USE

        RSEG XDATA_N:XDATA:REORDER:NOROOT(0)
        DATA16
//  153 static __no_init volatile uint8 *pForcePort;
??pForcePort:
        DS 2

        RSEG XDATA_N:XDATA:REORDER:NOROOT(0)
        DATA8
//  154 static __no_init uint8 forcePin;
??forcePin:
        DS 1
//  155 #endif

        RSEG XDATA_N:XDATA:REORDER:NOROOT(0)
        DATA32
//  156 static __no_init uint32 stStart, stDelay;
??stStart:
        DS 4

        RSEG XDATA_N:XDATA:REORDER:NOROOT(0)
        DATA32
??stDelay:
        DS 4
//  157 
//  158 #if UBL_SECURE
//  159 // Flag when built with UBL_SIGNER=TRUE to encrypt the read back.
//  160 static bool signMode;
//  161 #endif
//  162 
//  163 /* ------------------------------------------------------------------------------------------------
//  164  *                                       Local Functions
//  165  * ------------------------------------------------------------------------------------------------
//  166  */
//  167 
//  168 #if UBL_SECURE
//  169 static uint8 aesCheckCtrl(void *pBuf);
//  170 static void  aesLoadKey(void);
//  171 static void  aesInitSig(void);
//  172 #endif
//  173 
//  174 static bool cntDnForcedDecr(void);
//  175 #if defined UBL_GPIO_USE
//  176 static bool gpioInit(void);
//  177 #endif
//  178 static void vddWait(void);
//  179 
//  180 /**************************************************************************************************
//  181  * @fn          ublAesAuth
//  182  *
//  183  * @brief       Run the AES CRC-MAC authentication calculation over the RC image according to the
//  184  *              AES Control Block parameters and update the control block accordingly.
//  185  *              Just set CRC shadow equal to CRC when no valid security key built into the UBL.
//  186  *
//  187  * input parameters
//  188  *
//  189  * None.
//  190  *
//  191  * output parameters
//  192  *
//  193  * None.
//  194  *
//  195  * @return      TRUE or FALSE whether the AES signature of the image in flash is valid.
//  196  */

        RSEG BANKED_CODE:CODE:NOROOT(0)
//  197 uint8 ublAesAuth(void)
ublAesAuth:
          CFI Block cfiBlock0 Using cfiCommon0
          CFI Function ublAesAuth
        CODE
//  198 {
        FUNCALL ublAesAuth, HalFlashRead
        LOCFRAME ISTACK, 0, STACK
        LOCFRAME PSTACK, 0, STACK
        LOCFRAME XSTACK, 12, STACK
        LOCFRAME IOVERLAY, 0, STATIC
        LOCFRAME DOVERLAY, 0, STATIC
        ARGFRAME ISTACK, 0, STACK
        ARGFRAME PSTACK, 0, STACK
        ARGFRAME XSTACK, 12, STACK
        ARGFRAME IOVERLAY, 0, STATIC
        ARGFRAME DOVERLAY, 0, STATIC
        FUNCALL ublAesAuth, HalFlashWrite
        LOCFRAME ISTACK, 0, STACK
        LOCFRAME PSTACK, 0, STACK
        LOCFRAME XSTACK, 12, STACK
        LOCFRAME IOVERLAY, 0, STATIC
        LOCFRAME DOVERLAY, 0, STATIC
        ARGFRAME ISTACK, 0, STACK
        ARGFRAME PSTACK, 0, STACK
        ARGFRAME XSTACK, 12, STACK
        ARGFRAME IOVERLAY, 0, STATIC
        ARGFRAME DOVERLAY, 0, STATIC
        MOV     A,#-0xa
        LCALL   ?BANKED_ENTER_XDATA
          CFI DPH0 load(1, XDATA, add(CFA_XSP16, literal(-1)))
          CFI DPL0 load(1, XDATA, add(CFA_XSP16, literal(-2)))
          CFI ?BRET_EXT load(1, XDATA, add(CFA_XSP16, literal(-3)))
          CFI ?RET_HIGH load(1, XDATA, add(CFA_XSP16, literal(-4)))
          CFI ?RET_LOW load(1, XDATA, add(CFA_XSP16, literal(-5)))
          CFI R7 load(1, XDATA, add(CFA_XSP16, literal(-6)))
          CFI V1 load(1, XDATA, add(CFA_XSP16, literal(-7)))
          CFI V0 load(1, XDATA, add(CFA_XSP16, literal(-8)))
          CFI VB load(1, XDATA, add(CFA_XSP16, literal(-9)))
          CFI R6 load(1, XDATA, add(CFA_XSP16, literal(-10)))
          CFI CFA_SP SP+0
          CFI CFA_XSP16 add(XSP16, 10)
        ; Saved register size: 10
        ; Auto size: 0
//  199 #if UBL_SECURE
//  200   uint8 pgCnt = 0;
//  201   uint8 sigBuf[KEY_BLENGTH];
//  202 
//  203   aes_ctrl_blk_t ctrlBlk;
//  204   UBL_NVM_GET(UBL_ADDR_CTRL, &ctrlBlk, sizeof(aes_ctrl_blk_t));
//  205 
//  206   aesInitSig();
//  207 
//  208   for (uint8 pgNum = UBL_PAGE_FIRST; pgNum <= UBL_PAGE_LAST; pgNum++)
//  209   {
//  210     if (!GET_BIT(ublMD.writeEn, pgNum))
//  211     {
//  212       continue;
//  213     }
//  214 
//  215     pgCnt++;
//  216 
//  217     HalFlashRead(pgNum, 0, pgBuf, HAL_FLASH_PAGE_SIZE);
//  218 
//  219     for (uint16 oset = 0; oset < HAL_FLASH_PAGE_SIZE; )
//  220     {
//  221       if ((pgCnt == 1) && (oset == 0))
//  222       {
//  223         oset += KEY_BLENGTH;  // Must not include the signature bytes in the signature calculation.
//  224       }
//  225       else if ((pgCnt == ctrlBlk.imageLen) && (oset == (HAL_FLASH_PAGE_SIZE - KEY_BLENGTH)))
//  226       {
//  227         break;  // Need to change mode to CBC-MAC for the last block.
//  228       }
//  229 
//  230       ENCCS |= 0x01;
//  231       for (uint8 cnt = 0; cnt < KEY_BLENGTH; cnt++)
//  232       {
//  233         ENCDI = pgBuf[oset++];
//  234       }
//  235       while ((ENCCS & BV(3)) == 0);
//  236     }
//  237 
//  238     if (pgCnt >= ctrlBlk.imageLen)
//  239     {
//  240       break;
//  241     }
//  242   }
//  243 
//  244   ENCCS = CBC | AES_ENCRYPT | 0x01;  // Switch to CBC mode for the last block.
//  245 
//  246   // 'while ((ENCCS & BV(3)) == 0)' was seen to hang without #pragma optimize=none.
//  247   // So proactively adding this wait after every 'ENCCS = ' which empirically seems to work.
//  248   ASM_NOP; ASM_NOP; ASM_NOP; ASM_NOP; ASM_NOP; ASM_NOP; ASM_NOP; ASM_NOP;
//  249 
//  250   for (uint16 oset = (HAL_FLASH_PAGE_SIZE - KEY_BLENGTH); oset < HAL_FLASH_PAGE_SIZE; oset++)
//  251   {
//  252     ENCDI = pgBuf[oset];
//  253   }
//  254   HAL_AES_DELAY();  // Delay required for non-DMA AES as RDY bit only goes hi after read out below.
//  255 
//  256   // CBC-MAC generates output on the last block.
//  257   for (uint8 cnt = 0; cnt < KEY_BLENGTH; cnt++)
//  258   {
//  259     sigBuf[cnt] = ENCDO;
//  260   }
//  261 
//  262   if (ctrlBlk.allowSignCmd != 0)  // If requested to sign this image.
//  263   {
//  264     ctrlBlk.allowSignCmd = 0;
//  265     (void)memcpy(ctrlBlk.signature, sigBuf, KEY_BLENGTH);
//  266     UBL_NVM_SET(UBL_ADDR_CTRL, &ctrlBlk, sizeof(aes_ctrl_blk_t));
//  267     UBL_NVM_GET(UBL_ADDR_CTRL, &ctrlBlk, sizeof(aes_ctrl_blk_t));
//  268   }
//  269 
//  270 #if UBL_SIGNER
//  271   signMode = TRUE;  // Now the Signer should encrypt the read back.
//  272 #else  // A signer must always return FALSE so that usb_msd.c does not save the file name to flash.
//  273   if (memcmp(ctrlBlk.signature, sigBuf, KEY_BLENGTH))
//  274 #endif
//  275   {
//  276     return FALSE;
//  277   }
//  278 #endif
//  279 
//  280   HalFlashRead(UBL_META_DATA_PAGE, UBL_META_DATA_IDX, (uint8 *)&ublMD.crcRC, 4);
        ; Setup parameters for call to function HalFlashRead
        MOV     ?V0 + 0,#0x4
        MOV     ?V0 + 1,#0x0
        MOV     R0,#?V0 + 0
        LCALL   ?PUSH_XSTACK_I_TWO
          CFI CFA_XSP16 add(XSP16, 12)
        MOV     R4,#ublMD & 0xff
        MOV     R5,#(ublMD >> 8) & 0xff
        MOV     R2,#-0x64
        MOV     R3,#0x6
        MOV     R1,#0x1
        LCALL   ??HalFlashRead?relay
        MOV     A,#0x2
        LCALL   ?DEALLOC_XSTACK8
          CFI CFA_XSP16 add(XSP16, 10)
//  281 
//  282   ublMD.crcShdw = ublMD.crcRC;
        MOV     DPTR,#ublMD
        LCALL   ??Subroutine30_0 & 0xFFFF
??CrossCallReturnLabel_42:
        INC     DPTR
        MOV     A,R0
        MOVX    @DPTR,A
        INC     DPTR
        MOV     A,R1
        MOVX    @DPTR,A
//  283   ublMD.crcRC = UBL_CRC_ERASED;  // Do not write zero to the same bits more than twice.
        MOV     DPTR,#ublMD
        MOV     A,#-0x1
        MOVX    @DPTR,A
        INC     DPTR
        MOVX    @DPTR,A
//  284   HalFlashWrite(UBL_META_DATA_ADDR_WR, (uint8 *)&ublMD.crcRC, 1);
        ; Setup parameters for call to function HalFlashWrite
        MOV     ?V0 + 0,#0x1
        MOV     R0,#?V0 + 0
        LCALL   ?PUSH_XSTACK_I_TWO
          CFI CFA_XSP16 add(XSP16, 12)
        MOV     R4,#ublMD & 0xff
        MOV     R5,#(ublMD >> 8) & 0xff
        MOV     R2,#-0x59
        MOV     R3,#0x3
        LCALL   ??HalFlashWrite?relay
        MOV     A,#0x2
        LCALL   ?DEALLOC_XSTACK8
          CFI CFA_XSP16 add(XSP16, 10)
//  285 
//  286   return TRUE;
        MOV     R1,#0x1
        LJMP    ??Subroutine29_0 & 0xFFFF
          CFI EndBlock cfiBlock0
//  287 }
//  288 
//  289 /**************************************************************************************************
//  290  * @fn          ublAesCrypt
//  291  *
//  292  * @brief       UBL AES encryption/decyption for the low-level transport driver.
//  293  *              Just return when no valid security key built into the UBL.
//  294  *
//  295  * input parameters
//  296  *
//  297  * @param       pgNum - HAL Flash page number corresponding to the pgBuf.
//  298  * @param       pgBuf - Pointer to the page buffer to crypt in place.
//  299  *
//  300  * output parameters
//  301  *
//  302  * @param       pgBuf - Pointer to the page buffer of crypted bytes.
//  303  *
//  304  * @return      TRUE or FALSE whether the AES image page is valid (i.e. the ctrl block on 1st page).
//  305  */

        RSEG BANKED_CODE:CODE:NOROOT(0)
//  306 uint8 ublAesCrypt(uint8 pgNum, uint8 *pgBuf)
ublAesCrypt:
          CFI Block cfiBlock1 Using cfiCommon0
          CFI Function ublAesCrypt
        CODE
//  307 {
        ; Saved register size: 0
        ; Auto size: 0
//  308 #if UBL_SECURE
//  309   if (!UBL_SIGNER || signMode)
//  310   {
//  311     // A0: L-encoding of L-1 = 2-1 = 1; starting 2-byte CTR at 1.
//  312     uint8 ivNonce[KEY_BLENGTH] = { 1, 0, 0, 0, 0, 0, 0, 0, 0, 0, 0, 0, 0, 0, 0, 1 };
//  313     uint8 *pBuf = pgBuf;
//  314 
//  315     ENCCS = CTR | AES_LOAD_IV | 0x01;
//  316 
//  317     // 'while ((ENCCS & BV(3)) == 0)' was seen to hang without #pragma optimize=none.
//  318     // So proactively adding this wait after every 'ENCCS = ' which empirically seems to work.
//  319     ASM_NOP; ASM_NOP; ASM_NOP; ASM_NOP; ASM_NOP; ASM_NOP; ASM_NOP; ASM_NOP;
//  320 
//  321     for (uint8 idx = 0; idx < KEY_BLENGTH; idx++)
//  322     {
//  323       ENCDI = ivNonce[idx];
//  324     }
//  325     while ((ENCCS & BV(3)) == 0);
//  326 
//  327     for (uint8 cnt = 0; cnt < (HAL_FLASH_PAGE_SIZE / KEY_BLENGTH); cnt++)
//  328     {
//  329       ENCCS = CTR | AES_ENCRYPT | 0x01;
//  330 
//  331       // 'while ((ENCCS & BV(3)) == 0)' was seen to hang without #pragma optimize=none.
//  332       // So proactively adding this wait after every 'ENCCS = ' which empirically seems to work.
//  333       ASM_NOP; ASM_NOP; ASM_NOP; ASM_NOP; ASM_NOP; ASM_NOP; ASM_NOP; ASM_NOP;
//  334 
//  335       for (uint8 blk = 0; blk < 4; blk++)
//  336       {
//  337         for (uint8 idx = 0; idx < 4; idx++)
//  338         {
//  339           ENCDI = pBuf[idx];
//  340         }
//  341 
//  342         HAL_AES_DELAY();  // Delay required for non-DMA AES as RDY bit only goes hi after read out.
//  343 
//  344         for (uint8 idx = 0; idx < 4; idx++)
//  345         {
//  346           pBuf[idx] = ENCDO;
//  347         }
//  348 
//  349         pBuf += 4;
//  350       }
//  351     }
//  352 
//  353     if ((pgNum == UBL_PAGE_FIRST) && !aesCheckCtrl(pgBuf))
//  354     {
//  355       return FALSE;
//  356     }
//  357   }
//  358 #else
//  359   (void)pgNum;
//  360   (void)pgBuf;
//  361 #endif
//  362 
//  363   return TRUE;
        MOV     R1,#0x1
        LJMP    ?BRET
          CFI EndBlock cfiBlock1
//  364 }
//  365 
//  366 /**************************************************************************************************
//  367  * @fn          ublCfg
//  368  *
//  369  * @brief       Configure according to the received meta-data file if it checks out.
//  370  *
//  371  * input parameters
//  372  *
//  373  * @param       pMD - Pointer to the received meta-data file.
//  374  *
//  375  * output parameters
//  376  *
//  377  * None.
//  378  *
//  379  * @return      TRUE if the cfg file is acceptable; FALSE otherwise.
//  380  */

        RSEG BANKED_CODE:CODE:NOROOT(0)
//  381 bool ublCfg(ublMetaData_t *pMD)
ublCfg:
          CFI Block cfiBlock2 Using cfiCommon0
          CFI Function ublCfg
        CODE
//  382 {
        FUNCALL ublCfg, memcmp
        LOCFRAME ISTACK, 0, STACK
        LOCFRAME PSTACK, 0, STACK
        LOCFRAME XSTACK, 16, STACK
        LOCFRAME IOVERLAY, 0, STATIC
        LOCFRAME DOVERLAY, 0, STATIC
        ARGFRAME ISTACK, 0, STACK
        ARGFRAME PSTACK, 0, STACK
        ARGFRAME XSTACK, 16, STACK
        ARGFRAME IOVERLAY, 0, STATIC
        ARGFRAME DOVERLAY, 0, STATIC
        FUNCALL ublCfg, ublMassErase
        LOCFRAME ISTACK, 0, STACK
        LOCFRAME PSTACK, 0, STACK
        LOCFRAME XSTACK, 14, STACK
        LOCFRAME IOVERLAY, 0, STATIC
        LOCFRAME DOVERLAY, 0, STATIC
        ARGFRAME ISTACK, 0, STACK
        ARGFRAME PSTACK, 0, STACK
        ARGFRAME XSTACK, 14, STACK
        ARGFRAME IOVERLAY, 0, STATIC
        ARGFRAME DOVERLAY, 0, STATIC
        FUNCALL ublCfg, HalFlashWrite
        LOCFRAME ISTACK, 0, STACK
        LOCFRAME PSTACK, 0, STACK
        LOCFRAME XSTACK, 16, STACK
        LOCFRAME IOVERLAY, 0, STATIC
        LOCFRAME DOVERLAY, 0, STATIC
        ARGFRAME ISTACK, 0, STACK
        ARGFRAME PSTACK, 0, STACK
        ARGFRAME XSTACK, 16, STACK
        ARGFRAME IOVERLAY, 0, STATIC
        ARGFRAME DOVERLAY, 0, STATIC
        FUNCALL ublCfg, memcpy
        LOCFRAME ISTACK, 0, STACK
        LOCFRAME PSTACK, 0, STACK
        LOCFRAME XSTACK, 16, STACK
        LOCFRAME IOVERLAY, 0, STATIC
        LOCFRAME DOVERLAY, 0, STATIC
        ARGFRAME ISTACK, 0, STACK
        ARGFRAME PSTACK, 0, STACK
        ARGFRAME XSTACK, 16, STACK
        ARGFRAME IOVERLAY, 0, STATIC
        ARGFRAME DOVERLAY, 0, STATIC
        MOV     A,#-0xa
        LCALL   ?BANKED_ENTER_XDATA
          CFI DPH0 load(1, XDATA, add(CFA_XSP16, literal(-1)))
          CFI DPL0 load(1, XDATA, add(CFA_XSP16, literal(-2)))
          CFI ?BRET_EXT load(1, XDATA, add(CFA_XSP16, literal(-3)))
          CFI ?RET_HIGH load(1, XDATA, add(CFA_XSP16, literal(-4)))
          CFI ?RET_LOW load(1, XDATA, add(CFA_XSP16, literal(-5)))
          CFI R7 load(1, XDATA, add(CFA_XSP16, literal(-6)))
          CFI V1 load(1, XDATA, add(CFA_XSP16, literal(-7)))
          CFI V0 load(1, XDATA, add(CFA_XSP16, literal(-8)))
          CFI VB load(1, XDATA, add(CFA_XSP16, literal(-9)))
          CFI R6 load(1, XDATA, add(CFA_XSP16, literal(-10)))
          CFI CFA_SP SP+0
          CFI CFA_XSP16 add(XSP16, 10)
        ; Saved register size: 10
        ; Auto size: 4
        MOV     A,#-0x4
        LCALL   ?ALLOC_XSTACK8
          CFI CFA_XSP16 add(XSP16, 14)
        MOV     A,R2
        MOV     R6,A
        MOV     A,R3
        MOV     R7,A
//  383   // Thwart an attempt to break-in by an exhaustive Security Key trial-and-error.
//  384   if (!UBL_UNLOCKED && (memcmp(&ublMD.secKey, &pMD->secKey, sizeof(ublMD.secKey)) != 0))
        MOV     DPTR,#ublMD + 99
        MOVX    A,@DPTR
        JZ      ??ublCfg_0
        ; Setup parameters for call to function memcmp
        MOV     ?V0 + 0,#0x20
        MOV     ?V0 + 1,#0x0
        MOV     R0,#?V0 + 0
        LCALL   ?PUSH_XSTACK_I_TWO
          CFI CFA_XSP16 add(XSP16, 16)
        MOV     A,R6
        ADD     A,#0x8
        MOV     R4,A
        MOV     A,R7
        ADDC    A,#0x0
        MOV     R5,A
        MOV     R2,#(ublMD + 8) & 0xff
        MOV     R3,#((ublMD + 8) >> 8) & 0xff
        LCALL   ??memcmp?relay
        MOV     A,#0x2
        LCALL   ?DEALLOC_XSTACK8
          CFI CFA_XSP16 add(XSP16, 14)
        MOV     ?V0 + 1,R3
        MOV     A,R2
        ORL     A,?V0 + 1
        JZ      ??ublCfg_0
//  385   {
//  386     if (ublMD.cntDnSecKey == 0)
        MOV     DPTR,#ublMD + 96
        MOVX    A,@DPTR
        MOV     R0,A
        MOV     R1,#0x1
        JNZ     ??ublCfg_1
//  387     {
//  388       ublMassErase(TRUE);  // Force the erase of all pages outside of the UBL image.
        ; Setup parameters for call to function ublMassErase
        LCALL   ??ublMassErase?relay
//  389       HAL_SYSTEM_RESET();
        CLR     0xa8.7
        MOV     0xc9,#-0x55
        MOV     0xc9,#0x5b
??ublCfg_2:
        SJMP    ??ublCfg_2
//  390     }
//  391     else
//  392     {
//  393       uint8 mask = 0x01;
//  394 
//  395       while ((mask & ublMD.cntDnSecKey) == 0)
//  396       {
//  397         mask <<= 1;
??ublCfg_3:
        MOV     A,R1
        CLR     C
        RLC     A
        MOV     R1,A
//  398       }
??ublCfg_1:
        MOV     A,R1
        ANL     A,R0
        JZ      ??ublCfg_3
//  399       ublMD.cntDnSecKey ^= mask;
        MOVX    A,@DPTR
        XRL     A,R1
        MOVX    @DPTR,A
//  400 
//  401       // This will write zero to exactly one bit, so no bit is written to zero twice.
//  402       uint8 secKeyAndPad[4] = { 0xFF, 0xFF, 0xFF, 0xFF };
        MOV     DPTR,#`?<Constant {255, 255, 255, 255}>`
        PUSH    DPL
          CFI CFA_SP SP+-1
        MOV     DPL,?XSP + 0
        MOV     DPH,?XSP + 1
        MOV     R4,DPL
        MOV     R5,DPH
        MOV     DPH,#(`?<Constant {255, 255, 255, 255}>` >> 8) & 0xff
        POP     DPL
          CFI CFA_SP SP+0
        MOV     A,#0x4
        LCALL   ?MOVE_LONG8_XDATA_XDATA
//  403       secKeyAndPad[0] ^= mask;
        LCALL   ?Subroutine11 & 0xFFFF
//  404       HalFlashWrite(UBL_CNTDN_SECKEY_ADDR, secKeyAndPad, 1);
//  405     }
//  406   }
??CrossCallReturnLabel_11:
        LCALL   ?PUSH_XSTACK_I_TWO
          CFI CFA_XSP16 add(XSP16, 16)
        MOV     A,#0x2
        LCALL   ?XSTACK_DISP0_8
        MOV     R4,DPL
        MOV     R5,DPH
        MOV     R2,#-0x41
        MOV     R3,#0x3
        LCALL   ??HalFlashWrite?relay
        MOV     A,#0x2
        LCALL   ?DEALLOC_XSTACK8
          CFI CFA_XSP16 add(XSP16, 14)
//  407   else
//  408   {
//  409     UBL_UNLOCK();
//  410     (void)memcpy(&ublMD.chkMD, &pMD->chkMD, UBL_MD_CHKLEN);
//  411     ublMD.crcShdw = UBL_CRC_ZEROED;  // Receiving a "cfg" file is a de facto force of UBL mode.
//  412     return TRUE;
//  413   }
//  414 
//  415   return FALSE;
        MOV     R1,#0x0
        SJMP    ??ublCfg_4
??ublCfg_0:
        MOV     DPTR,#ublMD + 99
        CLR     A
        MOVX    @DPTR,A
        ; Setup parameters for call to function memcpy
        MOV     ?V0 + 0,#0x58
        MOV     ?V0 + 1,A
        MOV     R0,#?V0 + 0
        LCALL   ?PUSH_XSTACK_I_TWO
          CFI CFA_XSP16 add(XSP16, 16)
        MOV     A,R6
        ADD     A,#0x4
        MOV     R4,A
        MOV     A,R7
        ADDC    A,#0x0
        MOV     R5,A
        MOV     R2,#(ublMD + 4) & 0xff
        MOV     R3,#((ublMD + 4) >> 8) & 0xff
        LCALL   ??memcpy?relay
        MOV     A,#0x2
        LCALL   ?DEALLOC_XSTACK8
          CFI CFA_XSP16 add(XSP16, 14)
        MOV     DPTR,#ublMD + 2
        CLR     A
        MOVX    @DPTR,A
        INC     DPTR
        MOVX    @DPTR,A
        MOV     R1,#0x1
??ublCfg_4:
        MOV     A,#0x4
          CFI EndBlock cfiBlock2
        REQUIRE ?Subroutine4
        REQUIRE _A_IEN0
        REQUIRE WDCTL
        ; // Fall through to label ?Subroutine4
//  416 }

        RSEG BANKED_CODE:CODE:NOROOT(0)
?Subroutine4:
          CFI Block cfiBlock3 Using cfiCommon0
          CFI NoFunction
          CFI CFA_SP SP+0
          CFI CFA_XSP16 add(XSP16, 14)
          CFI VB load(1, XDATA, add(CFA_XSP16, literal(-9)))
          CFI DPL0 load(1, XDATA, add(CFA_XSP16, literal(-2)))
          CFI DPH0 load(1, XDATA, add(CFA_XSP16, literal(-1)))
          CFI R6 load(1, XDATA, add(CFA_XSP16, literal(-10)))
          CFI R7 load(1, XDATA, add(CFA_XSP16, literal(-6)))
          CFI V0 load(1, XDATA, add(CFA_XSP16, literal(-8)))
          CFI V1 load(1, XDATA, add(CFA_XSP16, literal(-7)))
          CFI ?BRET_EXT load(1, XDATA, add(CFA_XSP16, literal(-3)))
          CFI ?RET_HIGH load(1, XDATA, add(CFA_XSP16, literal(-4)))
          CFI ?RET_LOW load(1, XDATA, add(CFA_XSP16, literal(-5)))
          CFI Invalid
        LCALL   ?DEALLOC_XSTACK8
          CFI CFA_XSP16 add(XSP16, 10)
          CFI Valid
        LJMP    ??Subroutine29_0 & 0xFFFF
          CFI EndBlock cfiBlock3
//  417 
//  418 /**************************************************************************************************
//  419  * @fn          ublExec
//  420  *
//  421  * @brief       UBL executive loop for polling and managing environment.
//  422  *
//  423  * input parameters
//  424  *
//  425  * None.
//  426  *
//  427  * output parameters
//  428  *
//  429  * None.
//  430  *
//  431  * @return      None.
//  432  */

        RSEG BANKED_CODE:CODE:NOROOT(0)
//  433 void ublExec(void)
ublExec:
          CFI Block cfiBlock4 Using cfiCommon0
          CFI Function ublExec
        CODE
//  434 {
        FUNCALL ublExec, usb_msd_poll
        LOCFRAME ISTACK, 0, STACK
        LOCFRAME PSTACK, 0, STACK
        LOCFRAME XSTACK, 16, STACK
        LOCFRAME IOVERLAY, 0, STATIC
        LOCFRAME DOVERLAY, 0, STATIC
        ARGFRAME ISTACK, 0, STACK
        ARGFRAME PSTACK, 0, STACK
        ARGFRAME XSTACK, 16, STACK
        ARGFRAME IOVERLAY, 0, STATIC
        ARGFRAME DOVERLAY, 0, STATIC
        FUNCALL ublExec, usb_msd_uninit
        LOCFRAME ISTACK, 0, STACK
        LOCFRAME PSTACK, 0, STACK
        LOCFRAME XSTACK, 16, STACK
        LOCFRAME IOVERLAY, 0, STATIC
        LOCFRAME DOVERLAY, 0, STATIC
        ARGFRAME ISTACK, 0, STACK
        ARGFRAME PSTACK, 0, STACK
        ARGFRAME XSTACK, 16, STACK
        ARGFRAME IOVERLAY, 0, STATIC
        ARGFRAME DOVERLAY, 0, STATIC
        FUNCALL ublExec, ublJump
        LOCFRAME ISTACK, 0, STACK
        LOCFRAME PSTACK, 0, STACK
        LOCFRAME XSTACK, 16, STACK
        LOCFRAME IOVERLAY, 0, STATIC
        LOCFRAME DOVERLAY, 0, STATIC
        ARGFRAME ISTACK, 0, STACK
        ARGFRAME PSTACK, 0, STACK
        ARGFRAME XSTACK, 16, STACK
        ARGFRAME IOVERLAY, 0, STATIC
        ARGFRAME DOVERLAY, 0, STATIC
        MOV     A,#-0xc
        LCALL   ?BANKED_ENTER_XDATA
          CFI DPH0 load(1, XDATA, add(CFA_XSP16, literal(-1)))
          CFI DPL0 load(1, XDATA, add(CFA_XSP16, literal(-2)))
          CFI ?BRET_EXT load(1, XDATA, add(CFA_XSP16, literal(-3)))
          CFI ?RET_HIGH load(1, XDATA, add(CFA_XSP16, literal(-4)))
          CFI ?RET_LOW load(1, XDATA, add(CFA_XSP16, literal(-5)))
          CFI R7 load(1, XDATA, add(CFA_XSP16, literal(-6)))
          CFI V3 load(1, XDATA, add(CFA_XSP16, literal(-7)))
          CFI V2 load(1, XDATA, add(CFA_XSP16, literal(-8)))
          CFI V1 load(1, XDATA, add(CFA_XSP16, literal(-9)))
          CFI V0 load(1, XDATA, add(CFA_XSP16, literal(-10)))
          CFI VB load(1, XDATA, add(CFA_XSP16, literal(-11)))
          CFI R6 load(1, XDATA, add(CFA_XSP16, literal(-12)))
          CFI CFA_SP SP+0
          CFI CFA_XSP16 add(XSP16, 12)
        ; Saved register size: 12
        ; Auto size: 4
        MOV     A,#-0x4
        LCALL   ?ALLOC_XSTACK8
          CFI CFA_XSP16 add(XSP16, 16)
        SJMP    ??ublExec_0
//  435   while (1)
//  436   {
//  437     // No continual waits for VDD_MIN_NV - Vdd is assumed to be stable on a USB-powered device.
//  438     //vddWait();
//  439 
//  440     if (usb_msd_poll() == TRUE)  // TRUE == "Eject".
//  441     {
//  442       break;
//  443     }
//  444 
//  445     if (UBL_RC_VALID && (ublMD.dlyJmp != 0))
//  446     {
//  447 #if defined UBL_GPIO_USE
//  448       if (!GET_BIT(ublMD.cfgDiscs+0, gpioUseNot) &&
//  449           (GET_BIT(ublMD.cfgDiscs+0, gpioPolarity) == ((*pForcePort & BV(forcePin)) != 0)))
//  450       {
//  451         ublMD.crcShdw = UBL_CRC_ZEROED;
??ublExec_1:
        MOV     DPTR,#ublMD + 2
        CLR     A
        MOVX    @DPTR,A
        INC     DPTR
        MOVX    @DPTR,A
//  452       }
??ublExec_0:
        ; Setup parameters for call to function usb_msd_poll
        LCALL   ??usb_msd_poll?relay
        MOV     A,R1
        XRL     A,#0x1
        MOV     DPTR,#ublMD
        JNZ     $+5
        LJMP    ??ublExec_2 & 0xFFFF
        LCALL   ?Subroutine9 & 0xFFFF
??CrossCallReturnLabel_6:
        JNZ     ??ublExec_3
        INC     DPTR
        MOVX    A,@DPTR
        XRL     A,R1
??ublExec_3:
        JNZ     ??ublExec_0
        MOV     DPTR,#ublMD
        MOVX    A,@DPTR
        CPL     A
        JNZ     ??ublExec_4
        INC     DPTR
        MOVX    A,@DPTR
        CPL     A
??ublExec_4:
        JZ      ??ublExec_0
        MOV     A,R0
        ORL     A,R1
        JZ      ??ublExec_0
        MOV     DPTR,#ublMD + 6
        LCALL   ??Subroutine35_0 & 0xFFFF
??CrossCallReturnLabel_58:
        JZ      ??ublExec_0
        MOV     DPTR,#ublMD + 88
        MOVX    A,@DPTR
        MOV     C,0xE0 /* A   */.0
        JC      ??ublExec_5
        MOV     C,0xE0 /* A   */.1
        JNC     ??ublExec_6
        SETB    B.0
        SJMP    ??ublExec_7
??ublExec_6:
        CLR     B.0
??ublExec_7:
        MOV     C,B.0
        CLR     A
        RLC     A
        MOV     R2,A
        MOV     ?V0 + 0,#0x1
        MOV     ?V0 + 1,#0x0
        MOV     DPTR,#??forcePin
        MOVX    A,@DPTR
        MOV     R0,#?V0 + 0
        LCALL   ?S_SHL
        MOV     DPTR,#??pForcePort
        LCALL   ?Subroutine27 & 0xFFFF
??CrossCallReturnLabel_40:
        MOVX    A,@DPTR
        ANL     A,?V0 + 0
        JZ      ??ublExec_8
        SETB    B.0
        SJMP    ??ublExec_9
??ublExec_8:
        CLR     B.0
??ublExec_9:
        MOV     A,R2
        MOV     C,0xE0 /* A   */.0
        JB      B.0,??ublExec_10
        CPL     C
??ublExec_10:
        JC      ??ublExec_1
//  453       else
//  454 #endif
//  455       {
//  456         uint32 stDelta;
//  457         UBL_READ_ST(stDelta);  // Get the free-running count of 30.5 usec timer ticks.
??ublExec_5:
        MOV     A,0x95
        MOV     DPL,?XSP + 0
        MOV     DPH,?XSP + 1
        MOVX    @DPTR,A
        XRL     A,0x95
        JNZ     ??ublExec_5
        MOV     A,0x96
        PUSH    A
          CFI CFA_SP SP+-1
        MOV     A,#0x1
        LCALL   ?XSTACK_DISP0_8
        POP     A
          CFI CFA_SP SP+0
        MOVX    @DPTR,A
        MOV     A,0x97
        PUSH    A
          CFI CFA_SP SP+-1
        MOV     A,#0x2
        LCALL   ?XSTACK_DISP0_8
        POP     A
          CFI CFA_SP SP+0
        MOVX    @DPTR,A
        MOV     A,#0x3
        LCALL   ?XSTACK_DISP0_8
        CLR     A
        MOVX    @DPTR,A
//  458         stDelta -= stStart;  // Calculate the elapsed ticks of the free-running timer.
        MOV     DPTR,#??stStart
        MOV     R0,#?V0 + 0
        LCALL   ?L_MOV_X
        MOV     DPL,?XSP + 0
        MOV     DPH,?XSP + 1
        MOV     R0,#?V0 + 0
        LCALL   ?L_SUB_FROM_X
//  459         ((uint8 *)&stDelta)[3] = 0;  // Adjust for a carry on the 24-bit ST counter.
        MOV     A,#0x3
        LCALL   ?XSTACK_DISP0_8
        CLR     A
        MOVX    @DPTR,A
//  460 
//  461         if (stDelta > stDelay)
        MOV     DPL,?XSP + 0
        MOV     DPH,?XSP + 1
        MOV     R0,#?V0 + 0
        LCALL   ?L_MOV_X
        MOV     DPTR,#??stDelay
        MOV     R0,#?V0 + 0
        LCALL   ?UL_GT_X
        JC      $+5
        LJMP    ??ublExec_0 & 0xFFFF
        SJMP    ??ublExec_11
//  462         {
//  463           break;
//  464         }
//  465       }
//  466     }
//  467   }
//  468 
//  469   if (UBL_RC_VALID)
??ublExec_2:
        LCALL   ?Subroutine9 & 0xFFFF
??CrossCallReturnLabel_7:
        JNZ     ??ublExec_12
        INC     DPTR
        MOVX    A,@DPTR
        XRL     A,R1
??ublExec_12:
        JNZ     ??ublExec_13
        MOV     DPTR,#ublMD
        MOVX    A,@DPTR
        CPL     A
        JNZ     ??ublExec_14
        INC     DPTR
        MOVX    A,@DPTR
        CPL     A
??ublExec_14:
        JZ      ??ublExec_13
        MOV     A,R0
        ORL     A,R1
        JZ      ??ublExec_13
//  470   {
//  471     usb_msd_uninit();
??ublExec_11:
        ; Setup parameters for call to function usb_msd_uninit
        LCALL   ??usb_msd_uninit?relay
//  472     ublJump();
        ; Setup parameters for call to function ublJump
        LCALL   ??ublJump?relay
//  473   }
//  474 }
??ublExec_13:
        MOV     A,#0x4
        LCALL   ?DEALLOC_XSTACK8
          CFI CFA_XSP16 add(XSP16, 12)
        LJMP    ?Subroutine2 & 0xFFFF
          CFI EndBlock cfiBlock4
        REQUIRE ST0
        REQUIRE ST1
        REQUIRE ST2
//  475 
//  476 /**************************************************************************************************
//  477  * @fn          ublInit
//  478  *
//  479  * @brief       UBL environment initialization in preparation for running.
//  480  *
//  481  * input parameters
//  482  *
//  483  * None.
//  484  *
//  485  * output parameters
//  486  *
//  487  * None.
//  488  *
//  489  * @return      None.
//  490  */

        RSEG BANKED_CODE:CODE:NOROOT(0)
//  491 void ublInit(void)
ublInit:
          CFI Block cfiBlock5 Using cfiCommon0
          CFI Function ublInit
        CODE
//  492 {
        FUNCALL ublInit, HalFlashRead
        LOCFRAME ISTACK, 0, STACK
        LOCFRAME PSTACK, 0, STACK
        LOCFRAME XSTACK, 22, STACK
        LOCFRAME IOVERLAY, 0, STATIC
        LOCFRAME DOVERLAY, 0, STATIC
        ARGFRAME ISTACK, 0, STACK
        ARGFRAME PSTACK, 0, STACK
        ARGFRAME XSTACK, 22, STACK
        ARGFRAME IOVERLAY, 0, STATIC
        ARGFRAME DOVERLAY, 0, STATIC
        FUNCALL ublInit, memcmp
        LOCFRAME ISTACK, 0, STACK
        LOCFRAME PSTACK, 0, STACK
        LOCFRAME XSTACK, 22, STACK
        LOCFRAME IOVERLAY, 0, STATIC
        LOCFRAME DOVERLAY, 0, STATIC
        ARGFRAME ISTACK, 0, STACK
        ARGFRAME PSTACK, 0, STACK
        ARGFRAME XSTACK, 22, STACK
        ARGFRAME IOVERLAY, 0, STATIC
        ARGFRAME DOVERLAY, 0, STATIC
        FUNCALL ublInit, HalFlashWrite
        LOCFRAME ISTACK, 0, STACK
        LOCFRAME PSTACK, 0, STACK
        LOCFRAME XSTACK, 22, STACK
        LOCFRAME IOVERLAY, 0, STATIC
        LOCFRAME DOVERLAY, 0, STATIC
        ARGFRAME ISTACK, 0, STACK
        ARGFRAME PSTACK, 0, STACK
        ARGFRAME XSTACK, 22, STACK
        ARGFRAME IOVERLAY, 0, STATIC
        ARGFRAME DOVERLAY, 0, STATIC
        FUNCALL ublInit, ??gpioInit
        LOCFRAME ISTACK, 0, STACK
        LOCFRAME PSTACK, 0, STACK
        LOCFRAME XSTACK, 20, STACK
        LOCFRAME IOVERLAY, 0, STATIC
        LOCFRAME DOVERLAY, 0, STATIC
        ARGFRAME ISTACK, 0, STACK
        ARGFRAME PSTACK, 0, STACK
        ARGFRAME XSTACK, 20, STACK
        ARGFRAME IOVERLAY, 0, STATIC
        ARGFRAME DOVERLAY, 0, STATIC
        FUNCALL ublInit, ublJump
        LOCFRAME ISTACK, 0, STACK
        LOCFRAME PSTACK, 0, STACK
        LOCFRAME XSTACK, 20, STACK
        LOCFRAME IOVERLAY, 0, STATIC
        LOCFRAME DOVERLAY, 0, STATIC
        ARGFRAME ISTACK, 0, STACK
        ARGFRAME PSTACK, 0, STACK
        ARGFRAME XSTACK, 20, STACK
        ARGFRAME IOVERLAY, 0, STATIC
        ARGFRAME DOVERLAY, 0, STATIC
        FUNCALL ublInit, usb_msd_init
        LOCFRAME ISTACK, 0, STACK
        LOCFRAME PSTACK, 0, STACK
        LOCFRAME XSTACK, 20, STACK
        LOCFRAME IOVERLAY, 0, STATIC
        LOCFRAME DOVERLAY, 0, STATIC
        ARGFRAME ISTACK, 0, STACK
        ARGFRAME PSTACK, 0, STACK
        ARGFRAME XSTACK, 20, STACK
        ARGFRAME IOVERLAY, 0, STATIC
        ARGFRAME DOVERLAY, 0, STATIC
        MOV     A,#-0x10
        LCALL   ?BANKED_ENTER_XDATA
          CFI DPH0 load(1, XDATA, add(CFA_XSP16, literal(-1)))
          CFI DPL0 load(1, XDATA, add(CFA_XSP16, literal(-2)))
          CFI ?BRET_EXT load(1, XDATA, add(CFA_XSP16, literal(-3)))
          CFI ?RET_HIGH load(1, XDATA, add(CFA_XSP16, literal(-4)))
          CFI ?RET_LOW load(1, XDATA, add(CFA_XSP16, literal(-5)))
          CFI R7 load(1, XDATA, add(CFA_XSP16, literal(-6)))
          CFI V7 load(1, XDATA, add(CFA_XSP16, literal(-7)))
          CFI V6 load(1, XDATA, add(CFA_XSP16, literal(-8)))
          CFI V5 load(1, XDATA, add(CFA_XSP16, literal(-9)))
          CFI V4 load(1, XDATA, add(CFA_XSP16, literal(-10)))
          CFI V3 load(1, XDATA, add(CFA_XSP16, literal(-11)))
          CFI V2 load(1, XDATA, add(CFA_XSP16, literal(-12)))
          CFI V1 load(1, XDATA, add(CFA_XSP16, literal(-13)))
          CFI V0 load(1, XDATA, add(CFA_XSP16, literal(-14)))
          CFI VB load(1, XDATA, add(CFA_XSP16, literal(-15)))
          CFI R6 load(1, XDATA, add(CFA_XSP16, literal(-16)))
          CFI CFA_SP SP+0
          CFI CFA_XSP16 add(XSP16, 16)
        ; Saved register size: 16
        ; Auto size: 4
        MOV     A,#-0x4
        LCALL   ?ALLOC_XSTACK8
          CFI CFA_XSP16 add(XSP16, 20)
//  493   HalFlashRead(UBL_META_DATA_PAGE, UBL_META_DATA_IDX, (uint8 *)&ublMD, sizeof(ublMetaData_t));
        ; Setup parameters for call to function HalFlashRead
        MOV     ?V0 + 0,#0x64
        MOV     ?V0 + 1,#0x0
        MOV     R0,#?V0 + 0
        LCALL   ?PUSH_XSTACK_I_TWO
          CFI CFA_XSP16 add(XSP16, 22)
        MOV     R4,#ublMD & 0xff
        MOV     R5,#(ublMD >> 8) & 0xff
        MOV     R2,#-0x64
        MOV     R3,#0x6
        MOV     R1,#0x1
        LCALL   ??HalFlashRead?relay
        MOV     A,#0x2
        LCALL   ?DEALLOC_XSTACK8
          CFI CFA_XSP16 add(XSP16, 20)
//  494 
//  495   // If the RC image area is erased or the Application doesn't care about security, unlock the UBL.
//  496   if (memcmp(ublMD.secKey, unlockedSecKey, sizeof(unlockedSecKey)) == 0)
        ; Setup parameters for call to function memcmp
        MOV     ?V0 + 0,#0x20
        MOV     R0,#?V0 + 0
        LCALL   ?PUSH_XSTACK_I_TWO
          CFI CFA_XSP16 add(XSP16, 22)
        MOV     R4,#??unlockedSecKey & 0xff
        MOV     R5,#(??unlockedSecKey >> 8) & 0xff
        MOV     R2,#(ublMD + 8) & 0xff
        MOV     R3,#((ublMD + 8) >> 8) & 0xff
        LCALL   ??memcmp?relay
        MOV     A,#0x2
        LCALL   ?DEALLOC_XSTACK8
          CFI CFA_XSP16 add(XSP16, 20)
        MOV     ?V0 + 1,R3
        MOV     A,R2
        ORL     A,?V0 + 1
        JNZ     ??ublInit_0
//  497   {
//  498     UBL_UNLOCK();
        MOV     DPTR,#ublMD + 99
        CLR     A
        MOVX    @DPTR,A
//  499   }
//  500 
//  501   if (UBL_RC_VALID)
??ublInit_0:
        MOV     DPTR,#ublMD
        LCALL   ?Subroutine9 & 0xFFFF
??CrossCallReturnLabel_8:
        JNZ     ??ublInit_1
        INC     DPTR
        MOVX    A,@DPTR
        XRL     A,R1
??ublInit_1:
        JZ      $+5
        LJMP    ??ublInit_2 & 0xFFFF
        MOV     DPTR,#ublMD
        MOVX    A,@DPTR
        CPL     A
        JNZ     ??ublInit_3
        INC     DPTR
        MOVX    A,@DPTR
        CPL     A
??ublInit_3:
        JNZ     $+5
        LJMP    ??ublInit_2 & 0xFFFF
        MOV     A,R0
        ORL     A,R1
        JNZ     $+5
        LJMP    ??ublInit_2 & 0xFFFF
//  502   {
//  503     if ((ublMD.cntDnForced == 0) || (cntDnForcedDecr() == FALSE))
        MOV     DPTR,#ublMD + 92
        MOVX    A,@DPTR
        MOV     R0,A
        JZ      ??ublInit_4
        MOV     R1,#0x1
        SJMP    ??ublInit_5
??ublInit_6:
        MOV     A,R1
        CLR     C
        RLC     A
        MOV     R1,A
??ublInit_5:
        MOV     A,R1
        ANL     A,R0
        JZ      ??ublInit_6
        MOVX    A,@DPTR
        XRL     A,R1
        MOVX    @DPTR,A
        JNZ     ??ublInit_7
        MOV     DPTR,#ublMD + 2
        CLR     A
        MOVX    @DPTR,A
        INC     DPTR
        LJMP    ??ublInit_8 & 0xFFFF
??ublInit_7:
        MOV     DPTR,#`?<Constant {255, 255, 255, 255}>_1`
        PUSH    DPL
          CFI CFA_SP SP+-1
        MOV     DPL,?XSP + 0
        MOV     DPH,?XSP + 1
        MOV     R4,DPL
        MOV     R5,DPH
        MOV     DPH,#(`?<Constant {255, 255, 255, 255}>_1` >> 8) & 0xff
        POP     DPL
          CFI CFA_SP SP+0
        MOV     A,#0x4
        LCALL   ?MOVE_LONG8_XDATA_XDATA
        LCALL   ?Subroutine11 & 0xFFFF
??CrossCallReturnLabel_12:
        LCALL   ?PUSH_XSTACK_I_TWO
          CFI CFA_XSP16 add(XSP16, 22)
        MOV     A,#0x2
        LCALL   ?XSTACK_DISP0_8
        MOV     R4,DPL
        MOV     R5,DPH
        MOV     R2,#-0x42
        MOV     R3,#0x3
        LCALL   ??HalFlashWrite?relay
        MOV     A,#0x2
        LCALL   ?DEALLOC_XSTACK8
          CFI CFA_XSP16 add(XSP16, 20)
//  504     {
//  505 #if defined UBL_GPIO_USE
//  506       if (GET_BIT(ublMD.cfgDiscs+0, gpioUseNot) || (gpioInit() == FALSE))
??ublInit_4:
        MOV     DPTR,#ublMD + 88
        MOVX    A,@DPTR
        MOV     C,0xE0 /* A   */.0
        JC      ??ublInit_9
        ; Setup parameters for call to function gpioInit
        LCALL   ??gpioInit?relay
        MOV     A,R1
        JNZ     ??ublInit_2
//  507 #endif
//  508       {
//  509         if (ublMD.dlyJmp == 0)
??ublInit_9:
        MOV     DPTR,#ublMD + 6
        LCALL   ?Subroutine14 & 0xFFFF
??CrossCallReturnLabel_17:
        ORL     A,?V0 + 1
        JNZ     ??ublInit_10
//  510         {
//  511           ublJump();
        ; Setup parameters for call to function ublJump
        LCALL   ??ublJump?relay
        SJMP    ??ublInit_2
//  512         }
//  513         else
//  514         {
//  515           stDelay = (ublMD.dlyJmp * 4096UL) / 125;
??ublInit_10:
        CLR     A
        MOV     ?V0 + 2,A
        MOV     ?V0 + 3,A
        MOV     A,#0xc
        MOV     R0,#?V0 + 0
        LCALL   ?L_SHL
        MOV     DPTR,#__Constant_7d
        MOV     R0,#?V0 + 4
        LCALL   ?L_MOV_X
        MOV     R0,#?V0 + 0
        MOV     R1,#?V0 + 4
        LCALL   ?UL_DIV_MOD
        MOV     DPTR,#??stDelay
        MOV     R0,#?V0 + 0
        LCALL   ?L_MOV_TO_X
//  516           UBL_READ_ST(stStart);
??ublInit_11:
        MOV     A,0x95
        MOV     DPTR,#??stStart
        MOVX    @DPTR,A
        XRL     A,0x95
        JNZ     ??ublInit_11
        MOV     A,0x96
        INC     DPTR
        MOVX    @DPTR,A
        MOV     A,0x97
        INC     DPTR
        MOVX    @DPTR,A
        INC     DPTR
        CLR     A
??ublInit_8:
        MOVX    @DPTR,A
//  517         }
//  518       }
//  519     }
//  520   }
//  521 
//  522   vddWait();  // Stricter wait then in main, looking for safe Vdd for writing flash.
??ublInit_2:
        MOV     R0,#0x10
??ublInit_12:
        MOV     0xb6,#0xf
??ublInit_13:
        MOV     A,0xb4
        MOV     C,0xE0 /* A   */.7
        JNC     ??ublInit_13
        MOV     A,0xbb
        CLR     C
        SUBB    A,#0x4e
        JC      ??ublInit_12
        DEC     R0
        MOV     A,R0
        JNZ     ??ublInit_12
//  523 
//  524 #if UBL_SECURE
//  525   aesLoadKey();
//  526 
//  527   aes_ctrl_blk_t ctrlBlk;
//  528   UBL_NVM_GET(UBL_ADDR_CTRL, &ctrlBlk, sizeof(aes_ctrl_blk_t));
//  529 
//  530   if ((ctrlBlk.allowSignCmd != 0) && (ctrlBlk.imageLen != 0xFF)) // If requested to sign this image.
//  531   {
//  532     // Signing after checking UBL_RC_VALID ensures run as MSD again so encrypted image can be read.
//  533     (void)ublAesAuth();
//  534   }
//  535 
//  536 #if UBL_SIGNER  // A signer must allow image read back of what was written.
//  537   for (uint8 idx = 0; idx < 16; idx++)
//  538   {
//  539     ublMD.readLock[idx] = ublMD.writeEn[idx] ^ 0xFF;
//  540   }
//  541 #endif
//  542 #endif
//  543 
//  544   usb_msd_init();  // Initialize USB-MSD as late as possible for time limits after enabling D+ line.
        ; Setup parameters for call to function usb_msd_init
        LCALL   ??usb_msd_init?relay
//  545 }
        MOV     A,#0x4
        LCALL   ?DEALLOC_XSTACK8
          CFI CFA_XSP16 add(XSP16, 16)
        MOV     R7,#0x8
        LJMP    ?BANKED_LEAVE_XDATA
          CFI EndBlock cfiBlock5
        REQUIRE ST0
        REQUIRE ST1
        REQUIRE ST2
        REQUIRE ADCCON3
        REQUIRE ADCCON1
        REQUIRE ADCH

        RSEG BANKED_CODE:CODE:NOROOT(0)
?Subroutine11:
          CFI Block cfiCond6 Using cfiCommon0
          CFI Function ublCfg
          CFI Conditional ??CrossCallReturnLabel_11
          CFI R6 load(1, XDATA, add(CFA_XSP16, literal(-10)))
          CFI VB load(1, XDATA, add(CFA_XSP16, literal(-9)))
          CFI V0 load(1, XDATA, add(CFA_XSP16, literal(-8)))
          CFI V1 load(1, XDATA, add(CFA_XSP16, literal(-7)))
          CFI R7 load(1, XDATA, add(CFA_XSP16, literal(-6)))
          CFI ?RET_LOW load(1, XDATA, add(CFA_XSP16, literal(-5)))
          CFI ?RET_HIGH load(1, XDATA, add(CFA_XSP16, literal(-4)))
          CFI ?BRET_EXT load(1, XDATA, add(CFA_XSP16, literal(-3)))
          CFI DPL0 load(1, XDATA, add(CFA_XSP16, literal(-2)))
          CFI DPH0 load(1, XDATA, add(CFA_XSP16, literal(-1)))
          CFI CFA_SP SP+0
          CFI CFA_XSP16 add(XSP16, 14)
          CFI Block cfiCond7 Using cfiCommon0
          CFI (cfiCond7) Function ublInit
          CFI (cfiCond7) Conditional ??CrossCallReturnLabel_12
          CFI (cfiCond7) R6 load(1, XDATA, add(CFA_XSP16, literal(-16)))
          CFI (cfiCond7) VB load(1, XDATA, add(CFA_XSP16, literal(-15)))
          CFI (cfiCond7) V0 load(1, XDATA, add(CFA_XSP16, literal(-14)))
          CFI (cfiCond7) V1 load(1, XDATA, add(CFA_XSP16, literal(-13)))
          CFI (cfiCond7) V2 load(1, XDATA, add(CFA_XSP16, literal(-12)))
          CFI (cfiCond7) V3 load(1, XDATA, add(CFA_XSP16, literal(-11)))
          CFI (cfiCond7) V4 load(1, XDATA, add(CFA_XSP16, literal(-10)))
          CFI (cfiCond7) V5 load(1, XDATA, add(CFA_XSP16, literal(-9)))
          CFI (cfiCond7) V6 load(1, XDATA, add(CFA_XSP16, literal(-8)))
          CFI (cfiCond7) V7 load(1, XDATA, add(CFA_XSP16, literal(-7)))
          CFI (cfiCond7) R7 load(1, XDATA, add(CFA_XSP16, literal(-6)))
          CFI (cfiCond7) ?RET_LOW load(1, XDATA, add(CFA_XSP16, literal(-5)))
          CFI (cfiCond7) ?RET_HIGH load(1, XDATA, add(CFA_XSP16, literal(-4)))
          CFI (cfiCond7) ?BRET_EXT load(1, XDATA, add(CFA_XSP16, literal(-3)))
          CFI (cfiCond7) DPL0 load(1, XDATA, add(CFA_XSP16, literal(-2)))
          CFI (cfiCond7) DPH0 load(1, XDATA, add(CFA_XSP16, literal(-1)))
          CFI (cfiCond7) CFA_SP SP+0
          CFI (cfiCond7) CFA_XSP16 add(XSP16, 20)
          CFI Block cfiPicker8 Using cfiCommon1
          CFI (cfiPicker8) NoFunction
          CFI (cfiPicker8) Picker
        MOV     DPL,?XSP + 0
        MOV     DPH,?XSP + 1
        MOVX    A,@DPTR
        XRL     A,R1
        MOVX    @DPTR,A
        ; Setup parameters for call to function HalFlashWrite
        ; Setup parameters for call to function HalFlashWrite
        MOV     ?V0 + 0,#0x1
        MOV     ?V0 + 1,#0x0
        MOV     R0,#?V0 + 0
        RET
          CFI EndBlock cfiCond6
          CFI EndBlock cfiCond7
          CFI EndBlock cfiPicker8

        RSEG BANKED_CODE:CODE:NOROOT(0)
?Subroutine9:
          CFI Block cfiCond9 Using cfiCommon0
          CFI Function ublExec
          CFI Conditional ??CrossCallReturnLabel_6
          CFI R6 load(1, XDATA, add(CFA_XSP16, literal(-12)))
          CFI VB load(1, XDATA, add(CFA_XSP16, literal(-11)))
          CFI V0 load(1, XDATA, add(CFA_XSP16, literal(-10)))
          CFI V1 load(1, XDATA, add(CFA_XSP16, literal(-9)))
          CFI V2 load(1, XDATA, add(CFA_XSP16, literal(-8)))
          CFI V3 load(1, XDATA, add(CFA_XSP16, literal(-7)))
          CFI R7 load(1, XDATA, add(CFA_XSP16, literal(-6)))
          CFI ?RET_LOW load(1, XDATA, add(CFA_XSP16, literal(-5)))
          CFI ?RET_HIGH load(1, XDATA, add(CFA_XSP16, literal(-4)))
          CFI ?BRET_EXT load(1, XDATA, add(CFA_XSP16, literal(-3)))
          CFI DPL0 load(1, XDATA, add(CFA_XSP16, literal(-2)))
          CFI DPH0 load(1, XDATA, add(CFA_XSP16, literal(-1)))
          CFI CFA_SP SP+0
          CFI CFA_XSP16 add(XSP16, 16)
          CFI Block cfiCond10 Using cfiCommon0
          CFI (cfiCond10) Function ublExec
          CFI (cfiCond10) Conditional ??CrossCallReturnLabel_7
          CFI (cfiCond10) R6 load(1, XDATA, add(CFA_XSP16, literal(-12)))
          CFI (cfiCond10) VB load(1, XDATA, add(CFA_XSP16, literal(-11)))
          CFI (cfiCond10) V0 load(1, XDATA, add(CFA_XSP16, literal(-10)))
          CFI (cfiCond10) V1 load(1, XDATA, add(CFA_XSP16, literal(-9)))
          CFI (cfiCond10) V2 load(1, XDATA, add(CFA_XSP16, literal(-8)))
          CFI (cfiCond10) V3 load(1, XDATA, add(CFA_XSP16, literal(-7)))
          CFI (cfiCond10) R7 load(1, XDATA, add(CFA_XSP16, literal(-6)))
          CFI (cfiCond10) ?RET_LOW load(1, XDATA, add(CFA_XSP16, literal(-5)))
          CFI (cfiCond10) ?RET_HIGH load(1, XDATA, add(CFA_XSP16, literal(-4)))
          CFI (cfiCond10) ?BRET_EXT load(1, XDATA, add(CFA_XSP16, literal(-3)))
          CFI (cfiCond10) DPL0 load(1, XDATA, add(CFA_XSP16, literal(-2)))
          CFI (cfiCond10) DPH0 load(1, XDATA, add(CFA_XSP16, literal(-1)))
          CFI (cfiCond10) CFA_SP SP+0
          CFI (cfiCond10) CFA_XSP16 add(XSP16, 16)
          CFI Block cfiCond11 Using cfiCommon0
          CFI (cfiCond11) Function ublInit
          CFI (cfiCond11) Conditional ??CrossCallReturnLabel_8
          CFI (cfiCond11) R6 load(1, XDATA, add(CFA_XSP16, literal(-16)))
          CFI (cfiCond11) VB load(1, XDATA, add(CFA_XSP16, literal(-15)))
          CFI (cfiCond11) V0 load(1, XDATA, add(CFA_XSP16, literal(-14)))
          CFI (cfiCond11) V1 load(1, XDATA, add(CFA_XSP16, literal(-13)))
          CFI (cfiCond11) V2 load(1, XDATA, add(CFA_XSP16, literal(-12)))
          CFI (cfiCond11) V3 load(1, XDATA, add(CFA_XSP16, literal(-11)))
          CFI (cfiCond11) V4 load(1, XDATA, add(CFA_XSP16, literal(-10)))
          CFI (cfiCond11) V5 load(1, XDATA, add(CFA_XSP16, literal(-9)))
          CFI (cfiCond11) V6 load(1, XDATA, add(CFA_XSP16, literal(-8)))
          CFI (cfiCond11) V7 load(1, XDATA, add(CFA_XSP16, literal(-7)))
          CFI (cfiCond11) R7 load(1, XDATA, add(CFA_XSP16, literal(-6)))
          CFI (cfiCond11) ?RET_LOW load(1, XDATA, add(CFA_XSP16, literal(-5)))
          CFI (cfiCond11) ?RET_HIGH load(1, XDATA, add(CFA_XSP16, literal(-4)))
          CFI (cfiCond11) ?BRET_EXT load(1, XDATA, add(CFA_XSP16, literal(-3)))
          CFI (cfiCond11) DPL0 load(1, XDATA, add(CFA_XSP16, literal(-2)))
          CFI (cfiCond11) DPH0 load(1, XDATA, add(CFA_XSP16, literal(-1)))
          CFI (cfiCond11) CFA_SP SP+0
          CFI (cfiCond11) CFA_XSP16 add(XSP16, 20)
          CFI Block cfiPicker12 Using cfiCommon1
          CFI (cfiPicker12) NoFunction
          CFI (cfiPicker12) Picker
        LCALL   ?Subroutine26 & 0xFFFF
??CrossCallReturnLabel_71:
        INC     DPTR
        MOVX    A,@DPTR
        XRL     A,R0
        RET
          CFI EndBlock cfiCond9
          CFI EndBlock cfiCond10
          CFI EndBlock cfiCond11
          CFI EndBlock cfiPicker12
//  546 
//  547 /**************************************************************************************************
//  548  * @fn          ublJump
//  549  *
//  550  * @brief       Execute a simple long jump from non-banked UBL code to non-banked RC code space.
//  551  *
//  552  * input parameters
//  553  *
//  554  * None.
//  555  *
//  556  * output parameters
//  557  *
//  558  * None.
//  559  *
//  560  * @return      None.
//  561  */

        RSEG BANKED_CODE:CODE:NOROOT(0)
//  562 void ublJump(void)
ublJump:
          CFI Block cfiBlock13 Using cfiCommon0
          CFI Function ublJump
        CODE
//  563 {
        ; Saved register size: 0
        ; Auto size: 0
//  564   asm("LJMP 0x820\n");  // Immediate jump to run-code.
        LJMP 0x820
//  565   HAL_SYSTEM_RESET();
        CLR     0xa8.7
        MOV     0xc9,#-0x55
        MOV     0xc9,#0x5b
??ublJump_0:
        SJMP    ??ublJump_0
          CFI EndBlock cfiBlock13
        REQUIRE _A_IEN0
        REQUIRE WDCTL
//  566 }
//  567 
//  568 /**************************************************************************************************
//  569  * @fn          ublMassErase
//  570  *
//  571  * @brief       Erase all pages enabled for mass-erase (not including UBL pages or lock bits page).
//  572  *
//  573  * input parameters
//  574  *
//  575  * @param       eraseAll - Flag to override the 'eraseEn' bits of the Meta Data.
//  576  *
//  577  * output parameters
//  578  *
//  579  * None.
//  580  *
//  581  * @return      None.
//  582  */

        RSEG BANKED_CODE:CODE:NOROOT(0)
//  583 void ublMassErase(bool eraseAll)
ublMassErase:
          CFI Block cfiBlock14 Using cfiCommon0
          CFI Function ublMassErase
        CODE
//  584 {
        PUSH    DPL
          CFI DPL0 Frame(CFA_SP, 4)
          CFI CFA_SP SP+-4
        PUSH    DPH
          CFI DPH0 Frame(CFA_SP, 5)
          CFI CFA_SP SP+-5
        ; Saved register size: 2
        ; Auto size: 0
//  585   for (uint8 pg = UBL_RC_IMG_PG_BEG+1; pg <= UBL_PAGE_LAST; pg++)
        MOV     R0,#0x2
//  586   {
//  587     if (eraseAll || GET_BIT(ublMD.eraseEn, pg))
??ublMassErase_0:
        MOV     A,R1
        JNZ     ??ublMassErase_1
        MOV     A,#0x7
        ANL     A,R0
        MOV     R2,A
        MOV     A,#0x1
        CJNE    R2,#0x0,??ublMassErase_2
        SJMP    ??ublMassErase_3
??ublMassErase_2:
        CLR     C
        RLC     A
        DJNZ    R2,??ublMassErase_2
??ublMassErase_3:
        MOV     R4,A
        MOV     A,R0
        RRC     A
        RRC     A
        RRC     A
        ANL     A,#0x1f
        MOV     R2,A
        MOV     A,#(ublMD + 40) & 0xff
        ADD     A,R2
        MOV     DPL,A
        MOV     A,#((ublMD + 40) >> 8) & 0xff
        LCALL   ??Subroutine33_0 & 0xFFFF
??CrossCallReturnLabel_47:
        ANL     A,R4
        JZ      ??ublMassErase_4
//  588     {
//  589       FADDRH = pg * (HAL_FLASH_PAGE_SIZE / HAL_FLASH_WORD_SIZE / 256);
??ublMassErase_1:
        MOV     A,R0
        CLR     C
        RLC     A
        MOV     DPTR,#0x6272
        MOVX    @DPTR,A
//  590       FCTL |= 0x01;
        MOV     DPTR,#0x6270
        MOVX    A,@DPTR
        SETB    0xE0 /* A   */.0
        MOVX    @DPTR,A
//  591     }
//  592   }
??ublMassErase_4:
        INC     R0
        MOV     A,R0
        CLR     C
        SUBB    A,#0x78
        JC      ??ublMassErase_0
//  593 
//  594   // Now erase the page with the filename.
//  595   FADDRH = UBL_RC_IMG_PG_BEG * (HAL_FLASH_PAGE_SIZE / HAL_FLASH_WORD_SIZE / 256);
        MOV     DPTR,#0x6272
        MOV     A,#0x2
        LJMP    ?Subroutine1 & 0xFFFF
          CFI EndBlock cfiBlock14
//  596   FCTL |= 0x01;
//  597 }
//  598 
//  599 #if UBL_SECURE
//  600 /**************************************************************************************************
//  601  * @fn          aesCheckCtrl
//  602  *
//  603  * @brief       Check validity of a AES Control Block before writing it to flash.
//  604  *
//  605  * input parameters
//  606  *
//  607  * @param       pBuf - Pointer to the buffer containing the control block.
//  608  *
//  609  * output parameters
//  610  *
//  611  * None.
//  612  *
//  613  * @return      TRUE or FALSE for control block valid.
//  614  */
//  615 static uint8 aesCheckCtrl(void *pBuf)
//  616 {
//  617   uint8 sigBuf[KEY_BLENGTH] =
//  618    {0xFF, 0xFF, 0xFF, 0xFF, 0xFF, 0xFF, 0xFF, 0xFF, 0xFF, 0xFF, 0xFF, 0xFF, 0xFF, 0xFF, 0xFF, 0xFF};
//  619   aes_ctrl_blk_t *pCtl = (aes_ctrl_blk_t *)pBuf;
//  620 
//  621 #if UBL_SIGNER
//  622   if ( memcmp(pCtl->signature, sigBuf, sizeof(sigBuf))
//  623           || (pCtl->imageLen == 0)
//  624           || (pCtl->imageLen > UBL_PAGE_LAST)
//  625           || (pCtl->allowSignCmd == 0))
//  626 #else
//  627   if (!memcmp(pCtl->signature, sigBuf, sizeof(sigBuf))
//  628           || (pCtl->imageLen == 0)
//  629           || (pCtl->imageLen > UBL_PAGE_LAST)
//  630           || (pCtl->allowSignCmd != 0))
//  631 #endif
//  632   {
//  633     return FALSE;
//  634   }
//  635 
//  636   return TRUE;
//  637 }
//  638 
//  639 /**************************************************************************************************
//  640  * @fn          aesLoadKey
//  641  *
//  642  * @brief       Load the shared secret key into the AES for operations.
//  643  *
//  644  * input parameters
//  645  *
//  646  * None.
//  647  *
//  648  * output parameters
//  649  *
//  650  * None.
//  651  *
//  652  * @return      None.
//  653  */
//  654 static void aesLoadKey(void)
//  655 {
//  656   // Read the security key from flash 1 byte at a time to thwart an interrupt & read XDATA attack.
//  657   uint8 *keyPtr = (uint8 *)aesKey;
//  658 
//  659   ENCCS = ECB | AES_LOAD_KEY | 0x01;
//  660 
//  661   // 'while ((ENCCS & BV(3)) == 0)' was seen to hang without #pragma optimize=none.
//  662   // So proactively adding this wait after every 'ENCCS = ' which empirically seems to work.
//  663   ASM_NOP; ASM_NOP; ASM_NOP; ASM_NOP; ASM_NOP; ASM_NOP; ASM_NOP; ASM_NOP;
//  664 
//  665   for (uint8 cnt = 0; cnt < KEY_BLENGTH; cnt++)
//  666   {
//  667     ENCDI = *keyPtr++;
//  668   }
//  669 }
//  670 
//  671 /**************************************************************************************************
//  672  * @fn          aesInitSig
//  673  *
//  674  * @brief       Initialize the AES for signature calculation.
//  675  *
//  676  * input parameters
//  677  *
//  678  * None.
//  679  *
//  680  * output parameters
//  681  *
//  682  * None.
//  683  *
//  684  * @return      None.
//  685  */
//  686 static void aesInitSig(void)
//  687 {
//  688   aes_ctrl_blk_t ctrlBlk;
//  689   UBL_NVM_GET(UBL_ADDR_CTRL, &ctrlBlk, sizeof(aes_ctrl_blk_t));
//  690 
//  691   ENCCS = CBC_MAC | AES_LOAD_IV | 0x01;
//  692 
//  693   // 'while ((ENCCS & BV(3)) == 0)' was seen to hang without #pragma optimize=none.
//  694   // So proactively adding this wait after every 'ENCCS = ' which empirically seems to work.
//  695   ASM_NOP; ASM_NOP; ASM_NOP; ASM_NOP; ASM_NOP; ASM_NOP; ASM_NOP; ASM_NOP;
//  696 
//  697   for (uint8 cnt = 0; cnt < KEY_BLENGTH; cnt++)
//  698   {
//  699     ENCDI = 0;
//  700   }
//  701 
//  702   ENCCS = CBC_MAC | AES_ENCRYPT | 0x01;
//  703 
//  704   // 'while ((ENCCS & BV(3)) == 0)' was seen to hang without #pragma optimize=none.
//  705   // So proactively adding this wait after every 'ENCCS = ' which empirically seems to work.
//  706   ASM_NOP; ASM_NOP; ASM_NOP; ASM_NOP; ASM_NOP; ASM_NOP; ASM_NOP; ASM_NOP;
//  707 
//  708   ENCDI = 0x3A;  // B0 Flag: Res=0, A_Data=0, (M-2)/2=7, (L-1)=2.
//  709 
//  710   ENCDI = LO_UINT16(ctrlBlk.spare[0]);
//  711   ENCDI = HI_UINT16(ctrlBlk.spare[0]);
//  712   for (uint8 idx = 0; idx < 10; idx++)
//  713   {
//  714     ENCDI = ctrlBlk.nonce10[idx];
//  715   }
//  716 
//  717   // Image length in 3 bytes, MSB to LSB order - the Signature bytes are not to be included.
//  718   uint32 imageLen = 2048UL * ctrlBlk.imageLen - KEY_BLENGTH;
//  719   ENCDI = ((uint8 *)&imageLen)[2];
//  720   ENCDI = ((uint8 *)&imageLen)[1];
//  721   ENCDI = ((uint8 *)&imageLen)[0];
//  722 
//  723   while ((ENCCS & BV(3)) == 0);
//  724 }
//  725 #endif
//  726 
//  727 /**************************************************************************************************
//  728  * @fn          cntDnForcedDecr
//  729  *
//  730  * @brief       Decrement the cntDnForced.
//  731  *
//  732  * input parameters
//  733  *
//  734  * None.
//  735  *
//  736  * output parameters
//  737  *
//  738  * None.
//  739  *
//  740  * @return      TRUE if the dlyJmp decrements to zero; FALSE otherwise.
//  741  */
//  742 static bool cntDnForcedDecr(void)
//  743 {
//  744   uint8 mask = 0x01;
//  745 
//  746   while ((mask & ublMD.cntDnForced) == 0)
//  747   {
//  748     mask <<= 1;
//  749   }
//  750   ublMD.cntDnForced ^= mask;
//  751 
//  752   if (ublMD.cntDnForced == 0)
//  753   {
//  754     // Don't write the zero to flash in case of another cold-boot before re-programming, just
//  755     // force boot now by faking the CRC-shdw as zeroed.
//  756     ublMD.crcShdw = UBL_CRC_ZEROED;  // No need to zero crcShdw in flash, this will always run.
//  757     return TRUE;
//  758   }
//  759   else
//  760   {
//  761     // This will write zero to exactly one bit, so no bit is written to zero twice.
//  762     uint8 forcedAndPad[4] = { 0xFF, 0xFF, 0xFF, 0xFF };
//  763     forcedAndPad[0] ^= mask;
//  764     HalFlashWrite(UBL_CNTDN_FORCED_ADDR, forcedAndPad, 1);
//  765     return FALSE;
//  766   }
//  767 }
//  768 
//  769 #if defined UBL_GPIO_USE
//  770 /**************************************************************************************************
//  771  * @fn          gpioInit
//  772  *
//  773  * @brief       Initialize the generic GPIO force configuration.
//  774  *
//  775  * input parameters
//  776  *
//  777  * None.
//  778  *
//  779  * output parameters
//  780  *
//  781  * None.
//  782  *
//  783  * @return      TRUE if the GPIO is already forcing UBL mode; FALSE otherwise.
//  784  */

        RSEG BANKED_CODE:CODE:NOROOT(0)
//  785 static bool gpioInit(void)
??gpioInit:
          CFI Block cfiBlock15 Using cfiCommon0
          CFI Function ??gpioInit
        CODE
//  786 {
        MOV     A,#-0xa
        LCALL   ?BANKED_ENTER_XDATA
          CFI DPH0 load(1, XDATA, add(CFA_XSP16, literal(-1)))
          CFI DPL0 load(1, XDATA, add(CFA_XSP16, literal(-2)))
          CFI ?BRET_EXT load(1, XDATA, add(CFA_XSP16, literal(-3)))
          CFI ?RET_HIGH load(1, XDATA, add(CFA_XSP16, literal(-4)))
          CFI ?RET_LOW load(1, XDATA, add(CFA_XSP16, literal(-5)))
          CFI R7 load(1, XDATA, add(CFA_XSP16, literal(-6)))
          CFI V1 load(1, XDATA, add(CFA_XSP16, literal(-7)))
          CFI V0 load(1, XDATA, add(CFA_XSP16, literal(-8)))
          CFI VB load(1, XDATA, add(CFA_XSP16, literal(-9)))
          CFI R6 load(1, XDATA, add(CFA_XSP16, literal(-10)))
          CFI CFA_SP SP+0
          CFI CFA_XSP16 add(XSP16, 10)
        ; Saved register size: 10
        ; Auto size: 0
//  787   volatile uint8 *ptr;
//  788   uint8 port = ublMD.gpioPort / 8;
        MOV     DPTR,#ublMD + 89
        MOVX    A,@DPTR
        MOV     R0,A
        RRC     A
        RRC     A
        RRC     A
        ANL     A,#0x1f
        MOV     R1,A
//  789   uint8 pin = ublMD.gpioPort % 8;
        MOV     A,#0x7
        ANL     A,R0
        MOV     R4,A
//  790 
//  791   ptr = ((port == 0) ? &X_P0SEL : ((port == 1) ? &X_P1SEL : &X_P2SEL));
        MOV     A,R1
        JNZ     ??gpioInit_1
        MOV     R2,#-0xd
        SJMP    ??gpioInit_2
??gpioInit_1:
        MOV     A,#0x1
        XRL     A,R1
        JNZ     ??gpioInit_3
        MOV     R2,#-0xc
        SJMP    ??gpioInit_2
??gpioInit_3:
        MOV     R2,#-0xb
??gpioInit_2:
        MOV     R3,#0x70
//  792   *ptr &= ~BV(pin);
        MOV     A,R4
        MOV     R0,A
        MOV     A,#0x1
        CJNE    R0,#0x0,??gpioInit_4
        SJMP    ??gpioInit_5
??gpioInit_4:
        CLR     C
        RLC     A
        DJNZ    R0,??gpioInit_4
??gpioInit_5:
        MOV     R5,A
        CPL     A
        MOV     R6,A
        MOV     DPL,R2
        MOV     DPH,R3
        MOVX    A,@DPTR
        ANL     A,R6
        MOVX    @DPTR,A
//  793 
//  794   ptr = ((port == 0) ? &X_P0DIR : ((port == 1) ? &X_P1DIR : &X_P2DIR));
        MOV     A,R1
        JNZ     ??gpioInit_6
        MOV     R2,#-0x3
        SJMP    ??gpioInit_7
??gpioInit_6:
        MOV     A,#0x1
        XRL     A,R1
        JNZ     ??gpioInit_8
        MOV     R2,#-0x2
        SJMP    ??gpioInit_7
??gpioInit_8:
        MOV     R2,#-0x1
//  795   *ptr &= ~BV(pin);
??gpioInit_7:
        MOV     DPL,R2
        MOVX    A,@DPTR
        ANL     A,R6
        MOVX    @DPTR,A
//  796 
//  797   ptr = ((port == 0) ? &X_P0INP : ((port == 1) ? &X_P1INP : &X_P2INP));
        MOV     A,R1
        JNZ     ??gpioInit_9
        MOV     R2,#-0x71
        SJMP    ??gpioInit_10
??gpioInit_9:
        MOV     A,#0x1
        XRL     A,R1
        JNZ     ??gpioInit_11
        MOV     R2,#-0xa
        SJMP    ??gpioInit_10
??gpioInit_11:
        MOV     R2,#-0x9
//  798   if (GET_BIT(ublMD.cfgDiscs+0, gpioPullTri))     // If pulling.
??gpioInit_10:
        MOV     DPTR,#ublMD + 88
        MOVX    A,@DPTR
        MOV     C,0xE0 /* A   */.2
        JNC     ??gpioInit_12
//  799   {
//  800     if (GET_BIT(ublMD.cfgDiscs+0, gpioPullUpDn))  // If pulling up.
        MOV     ?V0 + 0,#0x1
        MOV     ?V0 + 1,#0x0
        MOV     A,#0x5
        ADD     A,R1
        MOV     R0,#?V0 + 0
        LCALL   ?S_SHL
        MOV     R0,?V0 + 0
        MOVX    A,@DPTR
        MOV     C,0xE0 /* A   */.3
        MOV     A,R0
        JNC     ??gpioInit_13
//  801     {
//  802       P2INP &= ~BV(port + 5);
        CPL     A
        ANL     0xf7,A
        SJMP    ??gpioInit_14
//  803     }
//  804     else                                          // If pulling down.
//  805     {
//  806       P2INP |= BV(port + 5); \ 
??gpioInit_13:
        ORL     0xf7,A
//  807     }
//  808     *ptr &= ~BV(pin);
??gpioInit_14:
        MOV     DPL,R2
        MOV     DPH,R3
        MOVX    A,@DPTR
        ANL     A,R6
        SJMP    ??gpioInit_15
//  809   }
//  810   else                                            // Tri-state.
//  811   {
//  812     *ptr |=  BV(pin);
??gpioInit_12:
        MOV     DPL,R2
        MOV     DPH,R3
        MOVX    A,@DPTR
        ORL     A,R5
??gpioInit_15:
        MOVX    @DPTR,A
//  813   }
//  814 
//  815   forcePin = pin;
        MOV     A,R4
        MOV     DPTR,#??forcePin
        MOVX    @DPTR,A
//  816   pForcePort = ((port == 0) ? &X_P0 : ((port == 1) ? &X_P1 : &X_P2));
        MOV     A,R1
        JNZ     ??gpioInit_16
        MOV     DPTR,#??pForcePort
        MOV     A,#-0x80
        SJMP    ??gpioInit_17
??gpioInit_16:
        MOV     A,#0x1
        XRL     A,R1
        MOV     DPTR,#??pForcePort
        JNZ     ??gpioInit_18
        MOV     A,#-0x70
        SJMP    ??gpioInit_17
??gpioInit_18:
        MOV     A,#-0x60
??gpioInit_17:
        MOVX    @DPTR,A
        INC     DPTR
        MOV     A,#0x70
        MOVX    @DPTR,A
//  817 
//  818   if (GET_BIT(ublMD.cfgDiscs+0, gpioPolarity) == ((*pForcePort & BV(forcePin)) != 0))
        MOV     DPTR,#ublMD + 88
        MOVX    A,@DPTR
        CLR     C
        RRC     A
        MOV     R0,A
        MOV     DPTR,#??pForcePort
        MOVX    A,@DPTR
        MOV     R2,A
        INC     DPTR
        MOVX    A,@DPTR
        MOV     DPH,A
        MOV     DPL,R2
        MOVX    A,@DPTR
        ANL     A,R5
        JZ      ??gpioInit_19
        SETB    B.0
        SJMP    ??gpioInit_20
??gpioInit_19:
        CLR     B.0
??gpioInit_20:
        MOV     A,R0
        MOV     C,0xE0 /* A   */.0
        JB      B.0,??gpioInit_21
        CPL     C
??gpioInit_21:
        JNC     ??gpioInit_22
//  819   {
//  820     ublMD.crcShdw = UBL_CRC_ZEROED;
        MOV     DPTR,#ublMD + 2
        CLR     A
        MOVX    @DPTR,A
        INC     DPTR
        MOVX    @DPTR,A
//  821     return TRUE;
        MOV     R1,#0x1
        SJMP    ??gpioInit_23
//  822   }
//  823 
//  824   return FALSE;
??gpioInit_22:
        MOV     R1,#0x0
??gpioInit_23:
        LJMP    ??Subroutine29_0 & 0xFFFF
          CFI EndBlock cfiBlock15
        REQUIRE P2INP
//  825 }
//  826 #endif
//  827 
//  828 /**************************************************************************************************
//  829  * @fn          vddWait
//  830  *
//  831  * @brief       Loop waiting for 16 reads of the Vdd over the safe minimum to erase/write flash.
//  832  *
//  833  * input parameters
//  834  *
//  835  * None.
//  836  *
//  837  * output parameters
//  838  *
//  839  * None.
//  840  *
//  841  * @return      None.
//  842  */
//  843 static void vddWait(void)
//  844 {
//  845   uint8 cnt = 16;
//  846 
//  847   do {
//  848     do {
//  849       ADCCON3 = 0x0F;
//  850       while (!(ADCCON1 & 0x80));
//  851     } while (ADCH < VDD_MIN_NV);
//  852   } while (--cnt);
//  853 }
//  854 
//  855 /**************************************************************************************************
//  856 */
// C:\Texas Instruments\BLE-CC254x-1.4.0\Projects\ble\util\UBL\soc_8051\usb_msd\app\ubl_main.c
//    1 /**************************************************************************************************
//    2   Filename:       ubl_main.c
//    3   Revised:        $Date: 2012-09-12 10:59:31 -0700 (Wed, 12 Sep 2012) $
//    4   Revision:       $Revision: 31516 $
//    5 
//    6   Description:
//    7 
//    8   This module implements the main functionality of a Universal Boot Loader for an 8051-based SOC
//    9   via the USB by MSD. The functionality is similar to ZStack OnBoard.c and hal_startup.c.
//   10 
//   11 
//   12   Copyright 2011-2012 Texas Instruments Incorporated. All rights reserved.
//   13 
//   14   IMPORTANT: Your use of this Software is limited to those specific rights
//   15   granted under the terms of a software license agreement between the user
//   16   who downloaded the software, his/her employer (which must be your employer)
//   17   and Texas Instruments Incorporated (the "License").  You may not use this
//   18   Software unless you agree to abide by the terms of the License. The License
//   19   limits your use, and you acknowledge, that the Software may not be modified,
//   20   copied or distributed unless embedded on a Texas Instruments microcontroller
//   21   or used solely and exclusively in conjunction with a Texas Instruments radio
//   22   frequency transceiver, which is integrated into your product.  Other than for
//   23   the foregoing purpose, you may not use, reproduce, copy, prepare derivative
//   24   works of, modify, distribute, perform, display or sell this Software and/or
//   25   its documentation for any purpose.
//   26 
//   27   YOU FURTHER ACKNOWLEDGE AND AGREE THAT THE SOFTWARE AND DOCUMENTATION ARE
//   28   PROVIDED “AS IS” WITHOUT WARRANTY OF ANY KIND, EITHER EXPRESS OR IMPLIED,
//   29   INCLUDING WITHOUT LIMITATION, ANY WARRANTY OF MERCHANTABILITY, TITLE,
//   30   NON-INFRINGEMENT AND FITNESS FOR A PARTICULAR PURPOSE. IN NO EVENT SHALL
//   31   TEXAS INSTRUMENTS OR ITS LICENSORS BE LIABLE OR OBLIGATED UNDER CONTRACT,
//   32   NEGLIGENCE, STRICT LIABILITY, CONTRIBUTION, BREACH OF WARRANTY, OR OTHER
//   33   LEGAL EQUITABLE THEORY ANY DIRECT OR INDIRECT DAMAGES OR EXPENSES
//   34   INCLUDING BUT NOT LIMITED TO ANY INCIDENTAL, SPECIAL, INDIRECT, PUNITIVE
//   35   OR CONSEQUENTIAL DAMAGES, LOST PROFITS OR LOST DATA, COST OF PROCUREMENT
//   36   OF SUBSTITUTE GOODS, TECHNOLOGY, SERVICES, OR ANY CLAIMS BY THIRD PARTIES
//   37   (INCLUDING BUT NOT LIMITED TO ANY DEFENSE THEREOF), OR OTHER SIMILAR COSTS.
//   38 
//   39   Should you have any questions regarding your right to use this Software,
//   40   contact Texas Instruments Incorporated at www.TI.com.
//   41 **************************************************************************************************/
//   42 
//   43 /* ------------------------------------------------------------------------------------------------
//   44  *                                          Includes
//   45  * ------------------------------------------------------------------------------------------------
//   46  */
//   47 
//   48 #include "hal_board_cfg.h"
//   49 #include "hal_dma.h"
//   50 #include "hal_flash.h"
//   51 #include "ubl_app.h"
//   52 #include "ubl_exec.h"
//   53 #include "usb_interrupt.h"
//   54 
//   55 /* ------------------------------------------------------------------------------------------------
//   56  *                                       Global Variables
//   57  * ------------------------------------------------------------------------------------------------
//   58  */
//   59 

        RSEG XDATA_N:XDATA:REORDER:NOROOT(0)
        DATA8
//   60 __no_init halDMADesc_t dmaCh0;  // Needed by the HAL flash write.
dmaCh0:
        DS 8
//   61 
//   62 /* ------------------------------------------------------------------------------------------------
//   63  *                                       Local Functions
//   64  * ------------------------------------------------------------------------------------------------
//   65  */
//   66 
//   67 static void vddWait(void);
//   68 
//   69 // If the code model is banked, low_level_init must be declared
//   70 // __near_func elsa a ?BRET is performed
//   71 //
//   72 #if (__CODE_MODEL__ == 2)
//   73 __near_func __root char
//   74 #else
//   75 __root char
//   76 #endif
//   77 __low_level_init(void);
//   78 
//   79 /**************************************************************************************************
//   80  * @fn          __low_level_init
//   81  *
//   82  * @brief       Abort boot loader as soon as possible after a Watchdog reset with a valid RC image.
//   83  *              This function is called by the IAR start-up code before doing normal initialization
//   84  *              of the data segments.
//   85  *
//   86  * input parameters
//   87  *
//   88  * None.
//   89  *
//   90  * output parameters
//   91  *
//   92  * None.
//   93  *
//   94  * @return      0 - don't intialize data segments / 1 - do initialization.
//   95  */
//   96 #if (__CODE_MODEL__ == 2)

        RSEG NEAR_CODE:CODE:ROOT(0)
//   97 __near_func __root char
//   98 #else
//   99 __root char
//  100 #endif
//  101 __low_level_init(void)
__low_level_init:
          CFI Block cfiBlock16 Using cfiCommon2
          CFI Function __low_level_init
        CODE
        REQUIRE __low_level_init_call
//  102 {
        FUNCALL __low_level_init, HalFlashRead
        LOCFRAME ISTACK, 0, STACK
        LOCFRAME PSTACK, 0, STACK
        LOCFRAME XSTACK, 11, STACK
        LOCFRAME IOVERLAY, 0, STATIC
        LOCFRAME DOVERLAY, 0, STATIC
        ARGFRAME ISTACK, 0, STACK
        ARGFRAME PSTACK, 0, STACK
        ARGFRAME XSTACK, 11, STACK
        ARGFRAME IOVERLAY, 0, STATIC
        ARGFRAME DOVERLAY, 0, STATIC
        FUNCALL __low_level_init, ublJump
        LOCFRAME ISTACK, 0, STACK
        LOCFRAME PSTACK, 0, STACK
        LOCFRAME XSTACK, 9, STACK
        LOCFRAME IOVERLAY, 0, STATIC
        LOCFRAME DOVERLAY, 0, STATIC
        ARGFRAME ISTACK, 0, STACK
        ARGFRAME PSTACK, 0, STACK
        ARGFRAME XSTACK, 9, STACK
        ARGFRAME IOVERLAY, 0, STATIC
        ARGFRAME DOVERLAY, 0, STATIC
        MOV     A,#-0x9
        LCALL   ?FUNC_ENTER_XDATA
          CFI DPH0 load(1, XDATA, add(CFA_XSP16, literal(-1)))
          CFI DPL0 load(1, XDATA, add(CFA_XSP16, literal(-2)))
          CFI ?RET_HIGH load(1, XDATA, add(CFA_XSP16, literal(-3)))
          CFI ?RET_LOW load(1, XDATA, add(CFA_XSP16, literal(-4)))
          CFI R7 load(1, XDATA, add(CFA_XSP16, literal(-5)))
          CFI V1 load(1, XDATA, add(CFA_XSP16, literal(-6)))
          CFI V0 load(1, XDATA, add(CFA_XSP16, literal(-7)))
          CFI VB load(1, XDATA, add(CFA_XSP16, literal(-8)))
          CFI R6 load(1, XDATA, add(CFA_XSP16, literal(-9)))
          CFI CFA_SP SP+0
          CFI CFA_XSP16 add(XSP16, 9)
        ; Saved register size: 9
        ; Auto size: 0
//  103   // Map flash bank #7 into XDATA for access to "ROM mapped as data".
//  104   MEMCTR = (MEMCTR & 0xF8) | 0x07;
        ORL     0xc7,#0x7
//  105 
//  106   if (ResetWasWatchDog)
        MOV     A,0x9d
        ANL     A,#0x18
        XRL     A,#0x10
        JNZ     ??__low_level_init_0
//  107   {
//  108     // Read from Flash the minimum subset of ublMetaData_t necessary for UBL_RC_VALID().
//  109     HalFlashRead(UBL_META_DATA_PAGE, UBL_META_DATA_IDX, (uint8 *)&ublMD.crcRC, 4);
        ; Setup parameters for call to function HalFlashRead
        MOV     ?V0 + 0,#0x4
        MOV     ?V0 + 1,#0x0
        MOV     R0,#?V0 + 0
        LCALL   ?PUSH_XSTACK_I_TWO
          CFI CFA_XSP16 add(XSP16, 11)
        MOV     R4,#ublMD & 0xff
        MOV     R5,#(ublMD >> 8) & 0xff
        MOV     R2,#-0x64
        MOV     R3,#0x6
        MOV     R1,#0x1
        LCALL   ??HalFlashRead?relay
        MOV     A,#0x2
        LCALL   ?DEALLOC_XSTACK8
          CFI CFA_XSP16 add(XSP16, 9)
//  110 
//  111     if (UBL_RC_VALID)
        MOV     DPTR,#ublMD
        MOVX    A,@DPTR
        MOV     R0,A
        INC     DPTR
        MOVX    A,@DPTR
        MOV     R1,A
        INC     DPTR
        MOVX    A,@DPTR
        XRL     A,R0
        JNZ     ??__low_level_init_1
        INC     DPTR
        MOVX    A,@DPTR
        XRL     A,R1
??__low_level_init_1:
        JNZ     ??__low_level_init_0
        MOV     DPTR,#ublMD
        MOVX    A,@DPTR
        CPL     A
        JNZ     ??__low_level_init_2
        INC     DPTR
        MOVX    A,@DPTR
        CPL     A
??__low_level_init_2:
        JZ      ??__low_level_init_0
        MOV     A,R0
        ORL     A,R1
        JZ      ??__low_level_init_0
//  112     {
//  113       ublJump();
        ; Setup parameters for call to function ublJump
        LCALL   ??ublJump?relay
//  114     }
//  115   }
//  116 
//  117   vddWait();
??__low_level_init_0:
        MOV     R0,#0x10
??__low_level_init_3:
        MOV     0xb6,#0xf
??__low_level_init_4:
        MOV     A,0xb4
        MOV     C,0xE0 /* A   */.7
        JNC     ??__low_level_init_4
        MOV     A,0xbb
        CLR     C
        SUBB    A,#0x4a
        JC      ??__low_level_init_3
        DEC     R0
        MOV     A,R0
        JNZ     ??__low_level_init_3
//  118   HAL_BOARD_INIT();
        MOV     0xa8,#0x0
        MOV     0xb8,#0x0
        MOV     0x9a,#0x0
        MOV     0xc6,#-0x80
        MOV     DPTR,#0x6270
        MOV     A,#0x8
        MOVX    @DPTR,A
//  119 
//  120   // Choose if segment initialization should be done or not: 0 to omit seg_init; 1 to run seg_init.
//  121   return 1;
        MOV     R1,#0x1
        MOV     R7,#0x2
        LJMP    ?FUNC_LEAVE_XDATA
          CFI EndBlock cfiBlock16
        REQUIRE MEMCTR
        REQUIRE SLEEPSTA
        REQUIRE _A_IEN0
        REQUIRE _A_IEN1
        REQUIRE IEN2
        REQUIRE CLKCONCMD
        REQUIRE ADCCON3
        REQUIRE ADCCON1
        REQUIRE ADCH
//  122 }
//  123 
//  124 /**************************************************************************************************
//  125  * @fn          main
//  126  *
//  127  * @brief       ISR for the reset vector, invoked by IAR after all segment initialization.
//  128  *
//  129  * input parameters
//  130  *
//  131  * None.
//  132  *
//  133  * output parameters
//  134  *
//  135  * None.
//  136  *
//  137  * @return      None.
//  138  */

        RSEG BANKED_CODE:CODE:NOROOT(0)
//  139 void main(void)
main:
          CFI Block cfiBlock17 Using cfiCommon0
          CFI Function main
        CODE
//  140 {
        FUNCALL main, ublInit
        LOCFRAME ISTACK, 0, STACK
        LOCFRAME PSTACK, 0, STACK
        LOCFRAME XSTACK, 0, STACK
        LOCFRAME IOVERLAY, 0, STATIC
        LOCFRAME DOVERLAY, 0, STATIC
        ARGFRAME ISTACK, 0, STACK
        ARGFRAME PSTACK, 0, STACK
        ARGFRAME XSTACK, 0, STACK
        ARGFRAME IOVERLAY, 0, STATIC
        ARGFRAME DOVERLAY, 0, STATIC
        FUNCALL main, ublExec
        LOCFRAME ISTACK, 0, STACK
        LOCFRAME PSTACK, 0, STACK
        LOCFRAME XSTACK, 0, STACK
        LOCFRAME IOVERLAY, 0, STATIC
        LOCFRAME DOVERLAY, 0, STATIC
        ARGFRAME ISTACK, 0, STACK
        ARGFRAME PSTACK, 0, STACK
        ARGFRAME XSTACK, 0, STACK
        ARGFRAME IOVERLAY, 0, STATIC
        ARGFRAME DOVERLAY, 0, STATIC
        ; Auto size: 0
//  141   /* This is in place of calling HalDmaInit() which would require init of the other 4 DMA
//  142    * descriptors in addition to just Channel 0.
//  143    */
//  144   HAL_DMA_SET_ADDR_DESC0(&dmaCh0);
        MOV     A,#(dmaCh0 >> 8) & 0xff
        MOV     0xd5,A
        MOV     0xd4,#dmaCh0 & 0xff
//  145 
//  146   ublInit();
        ; Setup parameters for call to function ublInit
        LCALL   ??ublInit?relay
//  147   ublExec();
        ; Setup parameters for call to function ublExec
        LCALL   ??ublExec?relay
//  148 
//  149   HAL_SYSTEM_RESET();
        CLR     0xa8.7
        MOV     0xc9,#-0x55
        MOV     0xc9,#0x5b
??main_0:
        SJMP    ??main_0
          CFI EndBlock cfiBlock17
        REQUIRE DMA0CFGH
        REQUIRE DMA0CFGL
        REQUIRE _A_IEN0
        REQUIRE WDCTL
//  150 }
//  151 
//  152 /**************************************************************************************************
//  153  * @fn          vddWait
//  154  *
//  155  * @brief       Loop waiting for 16 reads of the Vdd over the safe minimum to run.
//  156  *
//  157  * input parameters
//  158  *
//  159  * None.
//  160  *
//  161  * output parameters
//  162  *
//  163  * None.
//  164  *
//  165  * @return      None.
//  166  */
//  167 static void vddWait(void)
//  168 {
//  169   uint8 cnt = 16;
//  170 
//  171   do {
//  172     do {
//  173       ADCCON3 = 0x0F;
//  174       while (!(ADCCON1 & 0x80));
//  175     } while (ADCH < VDD_MIN_RUN);
//  176   } while (--cnt);
//  177 }
//  178 
//  179 /**************************************************************************************************
//  180 */
// C:\Texas Instruments\BLE-CC254x-1.4.0\Projects\ble\util\UBL\soc_8051\usb_msd\hal\hal_flash.c
//    1 /**************************************************************************************************
//    2   Filename:       hal_flash.c
//    3   Revised:        $Date: 2012-08-31 11:31:40 -0700 (Fri, 31 Aug 2012) $
//    4   Revision:       $Revision: 31449 $
//    5 
//    6   Description: This file contains the interface to the H/W Flash driver.
//    7 
//    8 
//    9   Copyright 2006-2011 Texas Instruments Incorporated. All rights reserved.
//   10 
//   11   IMPORTANT: Your use of this Software is limited to those specific rights
//   12   granted under the terms of a software license agreement between the user
//   13   who downloaded the software, his/her employer (which must be your employer)
//   14   and Texas Instruments Incorporated (the "License").  You may not use this
//   15   Software unless you agree to abide by the terms of the License. The License
//   16   limits your use, and you acknowledge, that the Software may not be modified,
//   17   copied or distributed unless embedded on a Texas Instruments microcontroller
//   18   or used solely and exclusively in conjunction with a Texas Instruments radio
//   19   frequency transceiver, which is integrated into your product.  Other than for
//   20   the foregoing purpose, you may not use, reproduce, copy, prepare derivative
//   21   works of, modify, distribute, perform, display or sell this Software and/or
//   22   its documentation for any purpose.
//   23 
//   24   YOU FURTHER ACKNOWLEDGE AND AGREE THAT THE SOFTWARE AND DOCUMENTATION ARE
//   25   PROVIDED “AS IS” WITHOUT WARRANTY OF ANY KIND, EITHER EXPRESS OR IMPLIED,
//   26   INCLUDING WITHOUT LIMITATION, ANY WARRANTY OF MERCHANTABILITY, TITLE,
//   27   NON-INFRINGEMENT AND FITNESS FOR A PARTICULAR PURPOSE. IN NO EVENT SHALL
//   28   TEXAS INSTRUMENTS OR ITS LICENSORS BE LIABLE OR OBLIGATED UNDER CONTRACT,
//   29   NEGLIGENCE, STRICT LIABILITY, CONTRIBUTION, BREACH OF WARRANTY, OR OTHER
//   30   LEGAL EQUITABLE THEORY ANY DIRECT OR INDIRECT DAMAGES OR EXPENSES
//   31   INCLUDING BUT NOT LIMITED TO ANY INCIDENTAL, SPECIAL, INDIRECT, PUNITIVE
//   32   OR CONSEQUENTIAL DAMAGES, LOST PROFITS OR LOST DATA, COST OF PROCUREMENT
//   33   OF SUBSTITUTE GOODS, TECHNOLOGY, SERVICES, OR ANY CLAIMS BY THIRD PARTIES
//   34   (INCLUDING BUT NOT LIMITED TO ANY DEFENSE THEREOF), OR OTHER SIMILAR COSTS.
//   35 
//   36   Should you have any questions regarding your right to use this Software,
//   37   contact Texas Instruments Incorporated at www.TI.com.
//   38 **************************************************************************************************/
//   39 
//   40 /* ------------------------------------------------------------------------------------------------
//   41  *                                          Includes
//   42  * ------------------------------------------------------------------------------------------------
//   43  */
//   44 
//   45 #include "hal_board_cfg.h"
//   46 #include "hal_dma.h"
//   47 #include "hal_flash.h"
//   48 #include "hal_mcu.h"
//   49 #include "hal_types.h"
//   50 
//   51 /**************************************************************************************************
//   52  * @fn          HalFlashRead
//   53  *
//   54  * @brief       This function reads 'cnt' bytes from the internal flash.
//   55  *
//   56  * input parameters
//   57  *
//   58  * @param       pg - A valid flash page number.
//   59  * @param       offset - A valid offset into the page.
//   60  * @param       buf - A valid buffer space at least as big as the 'cnt' parameter.
//   61  * @param       cnt - A valid number of bytes to read.
//   62  *
//   63  * output parameters
//   64  *
//   65  * None.
//   66  *
//   67  * @return      None.
//   68  **************************************************************************************************
//   69  */

        RSEG BANKED_CODE:CODE:NOROOT(0)
//   70 void HalFlashRead(uint8 pg, uint16 offset, uint8 *buf, uint16 cnt)
HalFlashRead:
          CFI Block cfiBlock18 Using cfiCommon0
          CFI Function HalFlashRead
        CODE
//   71 {
        MOV     A,#-0xc
        LCALL   ?BANKED_ENTER_XDATA
          CFI DPH0 load(1, XDATA, add(CFA_XSP16, literal(-1)))
          CFI DPL0 load(1, XDATA, add(CFA_XSP16, literal(-2)))
          CFI ?BRET_EXT load(1, XDATA, add(CFA_XSP16, literal(-3)))
          CFI ?RET_HIGH load(1, XDATA, add(CFA_XSP16, literal(-4)))
          CFI ?RET_LOW load(1, XDATA, add(CFA_XSP16, literal(-5)))
          CFI R7 load(1, XDATA, add(CFA_XSP16, literal(-6)))
          CFI V3 load(1, XDATA, add(CFA_XSP16, literal(-7)))
          CFI V2 load(1, XDATA, add(CFA_XSP16, literal(-8)))
          CFI V1 load(1, XDATA, add(CFA_XSP16, literal(-9)))
          CFI V0 load(1, XDATA, add(CFA_XSP16, literal(-10)))
          CFI VB load(1, XDATA, add(CFA_XSP16, literal(-11)))
          CFI R6 load(1, XDATA, add(CFA_XSP16, literal(-12)))
          CFI CFA_SP SP+0
          CFI CFA_XSP16 add(XSP16, 12)
        ; Saved register size: 12
        ; Auto size: 0
        MOV     ?V0 + 0,R1
//   72   // Calculate the offset into the containing flash bank as it gets mapped into XDATA.
//   73   uint8 *pData = (uint8 *)(offset + HAL_FLASH_PAGE_MAP) +
//   74                  ((pg % HAL_FLASH_PAGE_PER_BANK) * HAL_FLASH_PAGE_SIZE);
        MOV     A,#0xf
        ANL     A,?V0 + 0
        MOV     ?V0 + 2,A
        MOV     ?V0 + 3,#0x0
        MOV     A,#0xb
        MOV     R0,#?V0 + 2
        LCALL   ?S_SHL
        MOV     A,R2
        ADD     A,#0x0
        MOV     R0,A
        MOV     A,R3
        ADDC    A,#-0x80
        MOV     R1,A
        MOV     A,R0
        ADD     A,#0x0
        MOV     A,R1
        ADDC    A,?V0 + 3
        MOV     R1,A
//   75   uint8 memctr = MEMCTR;  // Save to restore.
        MOV     A,0xc7
        MOV     ?V0 + 1,A
//   76 
//   77 #if (!defined HAL_OAD_BOOT_CODE) && (!defined HAL_OTA_BOOT_CODE)
//   78   halIntState_t is;
//   79 #endif
//   80 
//   81   pg /= HAL_FLASH_PAGE_PER_BANK;  // Calculate the flash bank from the flash page.
//   82 
//   83 #if (!defined HAL_OAD_BOOT_CODE) && (!defined HAL_OTA_BOOT_CODE)
//   84   HAL_ENTER_CRITICAL_SECTION(is);
        MOV     C,0xa8.7
        CLR     A
        RLC     A
        MOV     ?V0 + 2,A
        CLR     0xa8.7
//   85 #endif
//   86 
//   87   // Calculate and map the containing flash bank into XDATA.
//   88   MEMCTR = (MEMCTR & 0xF8) | pg;
        MOV     A,?V0 + 0
        SWAP    A
        ANL     A,#0xf
        MOV     R2,A
        MOV     A,0xc7
        ANL     A,#0xf8
        ORL     A,R2
        MOV     0xc7,A
        MOV     A,#0xc
        LCALL   ?XSTACK_DISP0_8
        LCALL   ?Subroutine15 & 0xFFFF
??CrossCallReturnLabel_18:
        SJMP    ??HalFlashRead_0
//   89 
//   90   while (cnt--)
//   91   {
//   92     *buf++ = *pData++;
??HalFlashRead_1:
        MOV     DPL,R0
        MOV     DPH,R1
        MOVX    A,@DPTR
        MOV     DPL,R4
        MOV     DPH,R5
        MOVX    @DPTR,A
        MOV     DPL,R0
        MOV     DPH,R1
        INC     DPTR
        MOV     R0,DPL
        MOV     R1,DPH
        MOV     DPL,R4
        MOV     DPH,R5
        INC     DPTR
        MOV     R4,DPL
        MOV     R5,DPH
//   93   }
??HalFlashRead_0:
        MOV     A,R2
        MOV     R6,A
        MOV     A,R3
        MOV     R7,A
        MOV     A,R6
        ADD     A,#-0x1
        DEC     R2
        MOV     A,R7
        ADDC    A,#-0x1
        MOV     R3,A
        MOV     A,R6
        ORL     A,R7
        JNZ     ??HalFlashRead_1
//   94 
//   95   MEMCTR = memctr;
        MOV     0xc7,?V0 + 1
//   96 
//   97 #if (!defined HAL_OAD_BOOT_CODE) && (!defined HAL_OTA_BOOT_CODE)
//   98   HAL_EXIT_CRITICAL_SECTION(is);
        MOV     A,?V0 + 2
        MOV     C,0xE0 /* A   */.0
        MOV     0xa8.7,C
//   99 #endif
//  100 }
        LJMP    ?Subroutine2 & 0xFFFF
          CFI EndBlock cfiBlock18
        REQUIRE MEMCTR
        REQUIRE _A_IEN0
//  101 
//  102 /**************************************************************************************************
//  103  * @fn          HalFlashWrite
//  104  *
//  105  * @brief       This function writes 'cnt' bytes to the internal flash.
//  106  *
//  107  * input parameters
//  108  *
//  109  * @param       addr - Valid HAL flash write address: actual addr / 4 and quad-aligned.
//  110  * @param       buf - Valid buffer space at least as big as 'cnt' X 4.
//  111  * @param       cnt - Number of 4-byte blocks to write.
//  112  *
//  113  * output parameters
//  114  *
//  115  * None.
//  116  *
//  117  * @return      None.
//  118  **************************************************************************************************
//  119  */

        RSEG BANKED_CODE:CODE:NOROOT(0)
//  120 void HalFlashWrite(uint16 addr, uint8 *buf, uint16 cnt)
HalFlashWrite:
          CFI Block cfiBlock19 Using cfiCommon0
          CFI Function HalFlashWrite
        CODE
//  121 {
        MOV     A,#-0xa
        LCALL   ?BANKED_ENTER_XDATA
          CFI DPH0 load(1, XDATA, add(CFA_XSP16, literal(-1)))
          CFI DPL0 load(1, XDATA, add(CFA_XSP16, literal(-2)))
          CFI ?BRET_EXT load(1, XDATA, add(CFA_XSP16, literal(-3)))
          CFI ?RET_HIGH load(1, XDATA, add(CFA_XSP16, literal(-4)))
          CFI ?RET_LOW load(1, XDATA, add(CFA_XSP16, literal(-5)))
          CFI R7 load(1, XDATA, add(CFA_XSP16, literal(-6)))
          CFI V1 load(1, XDATA, add(CFA_XSP16, literal(-7)))
          CFI V0 load(1, XDATA, add(CFA_XSP16, literal(-8)))
          CFI VB load(1, XDATA, add(CFA_XSP16, literal(-9)))
          CFI R6 load(1, XDATA, add(CFA_XSP16, literal(-10)))
          CFI CFA_SP SP+0
          CFI CFA_XSP16 add(XSP16, 10)
        ; Saved register size: 10
        ; Auto size: 0
//  122   halDMADesc_t *ch = HAL_NV_DMA_GET_DESC();
//  123 
//  124   HAL_DMA_SET_SOURCE(ch, buf);
        MOV     A,R5
        MOV     DPTR,#dmaCh0
        MOVX    @DPTR,A
        MOV     A,R4
        INC     DPTR
        MOVX    @DPTR,A
//  125   HAL_DMA_SET_DEST(ch, &FWDATA);
        INC     DPTR
        MOV     A,#0x62
        MOVX    @DPTR,A
        INC     DPTR
        MOV     A,#0x73
        MOVX    @DPTR,A
//  126   HAL_DMA_SET_VLEN(ch, HAL_DMA_VLEN_USE_LEN);
        INC     DPTR
        MOVX    A,@DPTR
        ANL     A,#0x1f
        MOVX    @DPTR,A
        MOV     A,#0xa
        LCALL   ?XSTACK_DISP0_8
        LCALL   ?Subroutine14 & 0xFFFF
//  127   HAL_DMA_SET_LEN(ch, (cnt * HAL_FLASH_WORD_SIZE));
??CrossCallReturnLabel_16:
        RLC     A
        RLC     A
        ANL     A,#0xfc
        MOV     DPTR,#dmaCh0 + 5
        MOVX    @DPTR,A
        MOV     A,#0x6
        MOV     R0,#?V0 + 0
        LCALL   ?US_SHR
        MOV     A,?V0 + 0
        MOV     DPTR,#dmaCh0 + 4
        MOVX    @DPTR,A
//  128   HAL_DMA_SET_WORD_SIZE(ch, HAL_DMA_WORDSIZE_BYTE);
//  129   HAL_DMA_SET_TRIG_MODE(ch, HAL_DMA_TMODE_SINGLE);
//  130   HAL_DMA_SET_TRIG_SRC(ch, HAL_DMA_TRIG_FLASH);
        MOV     DPTR,#dmaCh0 + 6
        MOV     A,#0x12
        MOVX    @DPTR,A
//  131   HAL_DMA_SET_SRC_INC(ch, HAL_DMA_SRCINC_1);
//  132   HAL_DMA_SET_DST_INC(ch, HAL_DMA_DSTINC_0);
//  133   // The DMA is to be polled and shall not issue an IRQ upon completion.
//  134   HAL_DMA_SET_IRQ(ch, HAL_DMA_IRQMASK_DISABLE);
//  135   HAL_DMA_SET_M8( ch, HAL_DMA_M8_USE_8_BITS);
//  136   HAL_DMA_SET_PRIORITY(ch, HAL_DMA_PRI_HIGH);
        INC     DPTR
        MOV     A,#0x42
        MOVX    @DPTR,A
//  137   HAL_DMA_CLEAR_IRQ(HAL_NV_DMA_CH);
        MOV     0xd1,#-0x2
//  138   HAL_DMA_ARM_CH(HAL_NV_DMA_CH);
        MOV     0xd6,#0x1
//  139 
//  140   FADDRL = (uint8)addr;
        MOV     A,R2
        MOV     DPTR,#0x6271
        MOVX    @DPTR,A
//  141   FADDRH = (uint8)(addr >> 8);
        MOV     A,R3
        INC     DPTR
        MOVX    @DPTR,A
//  142   FCTL |= 0x02;         // Trigger the DMA writes.
        MOV     DPTR,#0x6270
        MOVX    A,@DPTR
        SETB    0xE0 /* A   */.1
        MOVX    @DPTR,A
//  143   while (FCTL & 0x80);  // Wait until writing is done.
??HalFlashWrite_0:
        MOVX    A,@DPTR
        MOV     C,0xE0 /* A   */.7
        JC      ??HalFlashWrite_0
//  144 }
        SJMP    ??Subroutine29_0
          CFI EndBlock cfiBlock19
        REQUIRE DMAIRQ
        REQUIRE DMAARM

        RSEG BANKED_CODE:CODE:NOROOT(0)
?Subroutine14:
          CFI Block cfiCond20 Using cfiCommon0
          CFI Function ublInit
          CFI Conditional ??CrossCallReturnLabel_17
          CFI R6 load(1, XDATA, add(CFA_XSP16, literal(-16)))
          CFI VB load(1, XDATA, add(CFA_XSP16, literal(-15)))
          CFI V0 load(1, XDATA, add(CFA_XSP16, literal(-14)))
          CFI V1 load(1, XDATA, add(CFA_XSP16, literal(-13)))
          CFI V2 load(1, XDATA, add(CFA_XSP16, literal(-12)))
          CFI V3 load(1, XDATA, add(CFA_XSP16, literal(-11)))
          CFI V4 load(1, XDATA, add(CFA_XSP16, literal(-10)))
          CFI V5 load(1, XDATA, add(CFA_XSP16, literal(-9)))
          CFI V6 load(1, XDATA, add(CFA_XSP16, literal(-8)))
          CFI V7 load(1, XDATA, add(CFA_XSP16, literal(-7)))
          CFI R7 load(1, XDATA, add(CFA_XSP16, literal(-6)))
          CFI ?RET_LOW load(1, XDATA, add(CFA_XSP16, literal(-5)))
          CFI ?RET_HIGH load(1, XDATA, add(CFA_XSP16, literal(-4)))
          CFI ?BRET_EXT load(1, XDATA, add(CFA_XSP16, literal(-3)))
          CFI DPL0 load(1, XDATA, add(CFA_XSP16, literal(-2)))
          CFI DPH0 load(1, XDATA, add(CFA_XSP16, literal(-1)))
          CFI CFA_SP SP+0
          CFI CFA_XSP16 add(XSP16, 20)
          CFI Block cfiCond21 Using cfiCommon0
          CFI (cfiCond21) Function HalFlashWrite
          CFI (cfiCond21) Conditional ??CrossCallReturnLabel_16
          CFI (cfiCond21) R6 load(1, XDATA, add(CFA_XSP16, literal(-10)))
          CFI (cfiCond21) VB load(1, XDATA, add(CFA_XSP16, literal(-9)))
          CFI (cfiCond21) V0 load(1, XDATA, add(CFA_XSP16, literal(-8)))
          CFI (cfiCond21) V1 load(1, XDATA, add(CFA_XSP16, literal(-7)))
          CFI (cfiCond21) R7 load(1, XDATA, add(CFA_XSP16, literal(-6)))
          CFI (cfiCond21) ?RET_LOW load(1, XDATA, add(CFA_XSP16, literal(-5)))
          CFI (cfiCond21) ?RET_HIGH load(1, XDATA, add(CFA_XSP16, literal(-4)))
          CFI (cfiCond21) ?BRET_EXT load(1, XDATA, add(CFA_XSP16, literal(-3)))
          CFI (cfiCond21) DPL0 load(1, XDATA, add(CFA_XSP16, literal(-2)))
          CFI (cfiCond21) DPH0 load(1, XDATA, add(CFA_XSP16, literal(-1)))
          CFI (cfiCond21) CFA_SP SP+0
          CFI (cfiCond21) CFA_XSP16 add(XSP16, 10)
          CFI Block cfiPicker22 Using cfiCommon1
          CFI (cfiPicker22) NoFunction
          CFI (cfiPicker22) Picker
        MOVX    A,@DPTR
        MOV     ?V0 + 0,A
        INC     DPTR
        MOVX    A,@DPTR
        MOV     ?V0 + 1,A
        MOV     A,?V0 + 0
        RET
          CFI EndBlock cfiCond20
          CFI EndBlock cfiCond21
          CFI EndBlock cfiPicker22

        RSEG XDATA_Z:XDATA:NOROOT(0)
        DATA16
??usbdpData:
        DS 2
        REQUIRE __INIT_XDATA_Z

        RSEG XDATA_ROM_C:CONST:REORDER:NOROOT(0)
        DATA32
??languageId:
        DATA8
        DB 4
        DB 3
        DB 9
        DB 4

        RSEG XDATA_ROM_C:CONST:REORDER:NOROOT(0)
        DATA8
??manufacturer:
        DB 36
        DB 3
        DB 84
        DB 0
        DB 101
        DB 0
        DB 120
        DB 0
        DB 97
        DB 0
        DB 115
        DB 0
        DB 32
        DB 0
        DB 73
        DB 0
        DB 110
        DB 0
        DB 115
        DB 0
        DB 116
        DB 0
        DB 114
        DB 0
        DB 117
        DB 0
        DB 109
        DB 0
        DB 101
        DB 0
        DB 110
        DB 0
        DB 116
        DB 0
        DB 115
        DB 0

        RSEG XDATA_ROM_C:CONST:REORDER:NOROOT(0)
        DATA8
??product:
        DB 36
        DB 3
        DB 84
        DB 0
        DB 73
        DB 0
        DB 32
        DB 0
        DB 67
        DB 0
        DB 67
        DB 0
        DB 50
        DB 0
        DB 53
        DB 0
        DB 51
        DB 0
        DB 49
        DB 0
        DB 32
        DB 0
        DB 85
        DB 0
        DB 83
        DB 0
        DB 66
        DB 0
        DB 32
        DB 0
        DB 77
        DB 0
        DB 83
        DB 0
        DB 68
        DB 0

        RSEG XDATA_I:XDATA:NOROOT(0)
??serialNumber:
        DATA8
        DS 42
        REQUIRE `?<Initializer for serialNumber>`
        REQUIRE __INIT_XDATA_I

        RSEG XDATA_ROM_C:CONST:REORDER:NOROOT(0)
        DATA8
hexDigit:
        DB 48
        DB 49
        DB 50
        DB 51
        DB 52
        DB 53
        DB 54
        DB 55
        DB 56
        DB 57
        DB 65
        DB 66
        DB 67
        DB 68
        DB 69
        DB 70

        RSEG XDATA_Z:XDATA:NOROOT(0)
        DATA8
// USBFW_DATA usbfwData
usbfwData:
        DS 20
        REQUIRE __INIT_XDATA_Z

        RSEG XDATA_Z:XDATA:NOROOT(0)
        DATA8
// USB_SETUP_DATA usbSetupData
usbSetupData:
        DS 5
        REQUIRE __INIT_XDATA_Z

        RSEG XDATA_Z:XDATA:NOROOT(0)
        DATA8
// USB_SETUP_HEADER usbSetupHeader
usbSetupHeader:
        DS 8
        REQUIRE __INIT_XDATA_Z

        RSEG DATA_Z:DATA:NOROOT(0)
        DATA16
??ProcessFunc:
        DS 2
        REQUIRE __INIT_DATA_Z

        RSEG XDATA_Z:XDATA:NOROOT(0)
        DATA16
??status:
        DS 2
        REQUIRE __INIT_XDATA_Z

        RSEG DATA_Z:DATA:NOROOT(0)
        DATA8
// USBIRQ_DATA __data usbirqData
usbirqData:
        DS 5
        REQUIRE __INIT_DATA_Z

        RSEG BANKED_CODE:CODE:NOROOT(0)
?Subroutine0:
          CFI Block cfiBlock23 Using cfiCommon0
          CFI NoFunction
          CFI CFA_SP SP+0
          CFI CFA_XSP16 add(XSP16, 10)
          CFI VB load(1, XDATA, add(CFA_XSP16, literal(-9)))
          CFI DPL0 load(1, XDATA, add(CFA_XSP16, literal(-2)))
          CFI DPH0 load(1, XDATA, add(CFA_XSP16, literal(-1)))
          CFI R6 load(1, XDATA, add(CFA_XSP16, literal(-10)))
          CFI R7 load(1, XDATA, add(CFA_XSP16, literal(-6)))
          CFI V0 load(1, XDATA, add(CFA_XSP16, literal(-8)))
          CFI V1 load(1, XDATA, add(CFA_XSP16, literal(-7)))
          CFI ?BRET_EXT load(1, XDATA, add(CFA_XSP16, literal(-3)))
          CFI ?RET_HIGH load(1, XDATA, add(CFA_XSP16, literal(-4)))
          CFI ?RET_LOW load(1, XDATA, add(CFA_XSP16, literal(-5)))
        MOV     0x8b,#0x0
        CLR     0xe8.0
          CFI EndBlock cfiBlock23
        REQUIRE ??Subroutine29_0
        ; // Fall through to label ??Subroutine29_0

        RSEG BANKED_CODE:CODE:NOROOT(0)
??Subroutine29_0:
          CFI Block cfiBlock24 Using cfiCommon0
          CFI NoFunction
          CFI CFA_SP SP+0
          CFI CFA_XSP16 add(XSP16, 10)
          CFI VB load(1, XDATA, add(CFA_XSP16, literal(-9)))
          CFI DPL0 load(1, XDATA, add(CFA_XSP16, literal(-2)))
          CFI DPH0 load(1, XDATA, add(CFA_XSP16, literal(-1)))
          CFI R6 load(1, XDATA, add(CFA_XSP16, literal(-10)))
          CFI R7 load(1, XDATA, add(CFA_XSP16, literal(-6)))
          CFI V0 load(1, XDATA, add(CFA_XSP16, literal(-8)))
          CFI V1 load(1, XDATA, add(CFA_XSP16, literal(-7)))
          CFI ?BRET_EXT load(1, XDATA, add(CFA_XSP16, literal(-3)))
          CFI ?RET_HIGH load(1, XDATA, add(CFA_XSP16, literal(-4)))
          CFI ?RET_LOW load(1, XDATA, add(CFA_XSP16, literal(-5)))
        MOV     R7,#0x2
        LJMP    ?BANKED_LEAVE_XDATA
          CFI EndBlock cfiBlock24
//  145 
//  146 /**************************************************************************************************
//  147  * @fn          HalFlashErase
//  148  *
//  149  * @brief       This function erases the specified page of the internal flash.
//  150  *
//  151  * input parameters
//  152  *
//  153  * @param       pg - A valid flash page number to erase.
//  154  *
//  155  * output parameters
//  156  *
//  157  * None.
//  158  *
//  159  * @return      None.
//  160  **************************************************************************************************
//  161  */

        RSEG BANKED_CODE:CODE:NOROOT(0)
//  162 void HalFlashErase(uint8 pg)
HalFlashErase:
          CFI Block cfiBlock25 Using cfiCommon0
          CFI Function HalFlashErase
        CODE
//  163 {
        PUSH    DPL
          CFI DPL0 Frame(CFA_SP, 4)
          CFI CFA_SP SP+-4
        PUSH    DPH
          CFI DPH0 Frame(CFA_SP, 5)
          CFI CFA_SP SP+-5
        ; Saved register size: 2
        ; Auto size: 0
//  164   FADDRH = pg * (HAL_FLASH_PAGE_SIZE / HAL_FLASH_WORD_SIZE / 256);
        MOV     A,R1
        CLR     C
        RLC     A
        MOV     DPTR,#0x6272
        LJMP    ?Subroutine1 & 0xFFFF
          CFI EndBlock cfiBlock25
//  165   FCTL |= 0x01;
//  166 }
//  167 
//  168 /**************************************************************************************************
//  169 */
// C:\Texas Instruments\BLE-CC254x-1.4.0\Projects\ble\util\UBL\soc_8051\usb_msd\hal\usb\library\usb_descriptor_parser.c
//    1 /***********************************************************************************
//    2 
//    3     Filename:     usb_descriptor_parser.c
//    4 
//    5     Description:  Parser for USB descriptor structures.
//    6 
//    7 ***********************************************************************************/
//    8 
//    9 /// \addtogroup module_usb_descriptor_parser
//   10 /// @{
//   11 #define USBDESCRIPTORPARSER_C ///< Modifies the behavior of "EXTERN" in usb_descriptor_parser.h
//   12 #include "usb_firmware_library_headers.h"
//   13 #include "hal_flash.h"
//   14 
//   15 //-------------------------------------------------------------------------------------------------------
//   16 // USBDP internal module data
//   17 static USBDP_DATA __xdata usbdpData; ///< USBDP internal module data
//   18 
//   19 //-------------------------------------------------------------------------------------------------------
//   20 // String descriptors (2-byte unicode data).
//   21 
//   22 // Language ID.
//   23 static const uint8 languageId[4] = {
//   24   4,
//   25   DESC_TYPE_STRING,
//   26   0x09, 0x04  /* US-EN */
//   27 };
//   28 
//   29 // Manufacturer.
//   30 static const uint8 manufacturer[36] = {
//   31   36,
//   32   DESC_TYPE_STRING,
//   33   'T', 0,
//   34   'e', 0,
//   35   'x', 0,
//   36   'a', 0,
//   37   's', 0,
//   38   ' ', 0,
//   39   'I', 0,
//   40   'n', 0,
//   41   's', 0,
//   42   't', 0,
//   43   'r', 0,
//   44   'u', 0,
//   45   'm', 0,
//   46   'e', 0,
//   47   'n', 0,
//   48   't', 0,
//   49   's', 0
//   50 };
//   51 
//   52 // Product.
//   53 #if defined HAL_SB_BOOT_CODE
//   54 static const uint8 product[36] = {
//   55   36,
//   56   DESC_TYPE_STRING,
//   57   'T', 0,
//   58   'I', 0,
//   59   ' ', 0,
//   60   'C', 0,
//   61   'C', 0,
//   62   '2', 0,
//   63   '5', 0,
//   64   '3', 0,
//   65   '1', 0,
//   66   ' ', 0,
//   67   'U', 0,
//   68   'S', 0,
//   69   'B', 0,
//   70   ' ', 0,
//   71   'M', 0,
//   72   'S', 0,
//   73   'D', 0
//   74 };
//   75 #else
//   76 static const uint8 product[36] = {
//   77   36,
//   78   DESC_TYPE_STRING,
//   79   'T', 0,
//   80   'I', 0,
//   81   ' ', 0,
//   82   'C', 0,
//   83   'C', 0,
//   84   '2', 0,
//   85   '5', 0,
//   86   '3', 0,
//   87   '1', 0,
//   88   ' ', 0,
//   89   'U', 0,
//   90   'S', 0,
//   91   'B', 0,
//   92   ' ', 0,
//   93   'C', 0,
//   94   'D', 0,
//   95   'C', 0
//   96 };
//   97 #endif
//   98 
//   99 // Serial Number.
//  100 static uint8 serialNumber[42] = {
//  101   0,  // Initializing to zero vice 42 is the indication to usbdpGetStringDesc() to fill w/ IEEE.
//  102   DESC_TYPE_STRING,
//  103   // Setup for using the 16 nibbles of the hex representation of the IEEE address.
//  104   '_', 0,
//  105   '_', 0,
//  106   '0', 0,
//  107   'X', 0,
//  108 };
//  109 
//  110 const uint8 hexDigit[16] = {
//  111   '0', '1', '2', '3', '4', '5', '6', '7', '8', '9', 'A', 'B', 'C', 'D', 'E', 'F' };
//  112 
//  113 /** \brief	Initializes a search
//  114 *
//  115 * This function must be called before each new search to reset \ref USBDP_DATA.pDesc.
//  116 */

        RSEG BANKED_CODE:CODE:NOROOT(0)
//  117 void usbdpInit(void)
usbdpInit:
          CFI Block cfiBlock26 Using cfiCommon0
          CFI Function usbdpInit
        CODE
//  118 {
        PUSH    DPL
          CFI DPL0 Frame(CFA_SP, 4)
          CFI CFA_SP SP+-4
        PUSH    DPH
          CFI DPH0 Frame(CFA_SP, 5)
          CFI CFA_SP SP+-5
        ; Saved register size: 2
        ; Auto size: 0
//  119    usbdpData.pDesc = (const uint8 __code *) usbDescriptorMarker.pUsbDescStart;
        MOV     DPTR,#usbDescriptorMarker
        LCALL   ??Subroutine30_0 & 0xFFFF
??CrossCallReturnLabel_43:
        MOV     DPTR,#??usbdpData
        MOV     A,R0
        MOVX    @DPTR,A
        INC     DPTR
        MOV     A,R1
        LJMP    ??Subroutine31_0 & 0xFFFF
          CFI EndBlock cfiBlock26
//  120 } // usbdpInit
//  121 
//  122 
//  123 
//  124 
//  125 /** \brief	Locates the descriptor of the wanted type
//  126 *
//  127 * This function parses through the USB descriptors until:
//  128 * \li It hits one with <tt>bDescriptorType = wantedType</tt>, in which case it returns a pointer to
//  129 *     that descriptor, and exits. \ref USBDP_DATA.pDesc will then point to the next descriptor.
//  130 * \li It hits one with <tt>bDescriptorType = haltAtType</tt>, in which case it returns a NULL-pointer,
//  131 *     and exits. \ref USBDP_DATA.pDesc will then point to that descriptor.
//  132 * \li \ref USBDP_DATA.pDesc = \ref usbDescEnd, in which case it returns a NULL-pointer, and exits.
//  133 *     \ref USBDP_DATA.pDesc will continue to point to \ref usbDescEnd.
//  134 *
//  135 * \note To begin a search with this function, \ref usbdpInit should be called first. It should not be
//  136 *       called when continuing a search - for instance after a call to \ref usbdpGetConfigurationDesc().
//  137 *
//  138 * \param[in]       wantedType
//  139 *     The wanted descriptor type (e.g. \ref DESC_TYPE_CONFIG)
//  140 * \param[in]       haltAtType
//  141 *     The parser halts when it reaches this descriptor type, unless \c haltAtType is \c 0 (which in any
//  142 *     case is an invalid \c bDescriptorType value).
//  143 *
//  144 * \return
//  145 *     A pointer to the wanted descriptor type, or \c NULL if it was not found.
//  146 */

        RSEG BANKED_CODE:CODE:NOROOT(0)
//  147 void __code* usbdpFindNext(uint8 wantedType, uint8 haltAtType)
usbdpFindNext:
          CFI Block cfiBlock27 Using cfiCommon0
          CFI Function usbdpFindNext
        CODE
//  148 {
        PUSH    DPL
          CFI DPL0 Frame(CFA_SP, 4)
          CFI CFA_SP SP+-4
        PUSH    DPH
          CFI DPH0 Frame(CFA_SP, 5)
          CFI CFA_SP SP+-5
        ; Saved register size: 2
        ; Auto size: 0
        MOV     A,R1
        MOV     R4,A
        MOV     A,R2
        MOV     R5,A
//  149    void __code *pResult;
//  150    pResult = NULL;
        MOV     R2,#0x0
        MOV     R3,#0x0
        SJMP    ??CrossCallReturnLabel_0
//  151 
//  152    // As long as we haven't reached the end...
//  153    while (usbdpData.pDesc != (void __code *) usbDescriptorMarker.pUsbDescEnd) {
//  154 
//  155       // If we have a match on wantedType...
//  156       if (usbdpData.pDesc[DESC_TYPE_IDX] == wantedType) {
//  157          pResult = (void __code*) usbdpData.pDesc;
//  158          usbdpData.pDesc += usbdpData.pDesc[DESC_LENGTH_IDX];
//  159          break;
//  160 
//  161       // If we have a match on haltAtType...
//  162       } else if (usbdpData.pDesc[DESC_TYPE_IDX] == haltAtType) {
//  163          if (haltAtType) break;
//  164       }
//  165 
//  166       // Move on to the next descriptor
//  167       usbdpData.pDesc += usbdpData.pDesc[DESC_LENGTH_IDX];
??usbdpFindNext_0:
        LCALL   ?Subroutine6 & 0xFFFF
??CrossCallReturnLabel_0:
        MOV     DPTR,#??usbdpData
        LCALL   ??Subroutine30_0 & 0xFFFF
??CrossCallReturnLabel_44:
        MOV     DPTR,#usbDescriptorMarker + 2
        MOVX    A,@DPTR
        XRL     A,R0
        JNZ     ??usbdpFindNext_1
        INC     DPTR
        MOVX    A,@DPTR
        XRL     A,R1
??usbdpFindNext_1:
        JZ      ??usbdpFindNext_2
        MOV     DPTR,#??usbdpData + 1
        MOVX    A,@DPTR
        MOV     DPH,A
        MOV     DPL,R0
        INC     DPTR
        CLR     A
        MOVC    A,@A+DPTR
        MOV     R0,A
        MOV     A,R4
        XRL     A,R0
        JNZ     ??usbdpFindNext_3
        MOV     DPTR,#??usbdpData
        LCALL   ?Subroutine15 & 0xFFFF
??CrossCallReturnLabel_19:
        LCALL   ?Subroutine6 & 0xFFFF
??CrossCallReturnLabel_1:
        SJMP    ??usbdpFindNext_2
??usbdpFindNext_3:
        MOV     A,R5
        XRL     A,R0
        JNZ     ??usbdpFindNext_0
        MOV     A,R5
        JZ      ??usbdpFindNext_0
//  168    }
//  169 
//  170    return pResult;
??usbdpFindNext_2:
        SJMP    ??Subroutine32_0
          CFI EndBlock cfiBlock27
//  171 } // usbdpFindNext

        RSEG BANKED_CODE:CODE:NOROOT(0)
?Subroutine15:
          CFI Block cfiCond28 Using cfiCommon0
          CFI Function HalFlashRead
          CFI Conditional ??CrossCallReturnLabel_18
          CFI R6 load(1, XDATA, add(CFA_XSP16, literal(-12)))
          CFI VB load(1, XDATA, add(CFA_XSP16, literal(-11)))
          CFI V0 load(1, XDATA, add(CFA_XSP16, literal(-10)))
          CFI V1 load(1, XDATA, add(CFA_XSP16, literal(-9)))
          CFI V2 load(1, XDATA, add(CFA_XSP16, literal(-8)))
          CFI V3 load(1, XDATA, add(CFA_XSP16, literal(-7)))
          CFI R7 load(1, XDATA, add(CFA_XSP16, literal(-6)))
          CFI ?RET_LOW load(1, XDATA, add(CFA_XSP16, literal(-5)))
          CFI ?RET_HIGH load(1, XDATA, add(CFA_XSP16, literal(-4)))
          CFI ?BRET_EXT load(1, XDATA, add(CFA_XSP16, literal(-3)))
          CFI DPL0 load(1, XDATA, add(CFA_XSP16, literal(-2)))
          CFI DPH0 load(1, XDATA, add(CFA_XSP16, literal(-1)))
          CFI CFA_SP SP+0
          CFI CFA_XSP16 add(XSP16, 12)
          CFI Block cfiCond29 Using cfiCommon0
          CFI (cfiCond29) Function usbdpFindNext
          CFI (cfiCond29) Conditional ??CrossCallReturnLabel_19
          CFI (cfiCond29) DPL0 Frame(CFA_SP, 4)
          CFI (cfiCond29) DPH0 Frame(CFA_SP, 5)
          CFI (cfiCond29) CFA_SP SP+-5
          CFI Block cfiCond30 Using cfiCommon0
          CFI (cfiCond30) Function usbsrGetDescriptor
          CFI (cfiCond30) Conditional ??CrossCallReturnLabel_20
          CFI (cfiCond30) R6 load(1, XDATA, add(CFA_XSP16, literal(-14)))
          CFI (cfiCond30) VB load(1, XDATA, add(CFA_XSP16, literal(-13)))
          CFI (cfiCond30) V0 load(1, XDATA, add(CFA_XSP16, literal(-12)))
          CFI (cfiCond30) V1 load(1, XDATA, add(CFA_XSP16, literal(-11)))
          CFI (cfiCond30) V2 load(1, XDATA, add(CFA_XSP16, literal(-10)))
          CFI (cfiCond30) V3 load(1, XDATA, add(CFA_XSP16, literal(-9)))
          CFI (cfiCond30) V4 load(1, XDATA, add(CFA_XSP16, literal(-8)))
          CFI (cfiCond30) V5 load(1, XDATA, add(CFA_XSP16, literal(-7)))
          CFI (cfiCond30) R7 load(1, XDATA, add(CFA_XSP16, literal(-6)))
          CFI (cfiCond30) ?RET_LOW load(1, XDATA, add(CFA_XSP16, literal(-5)))
          CFI (cfiCond30) ?RET_HIGH load(1, XDATA, add(CFA_XSP16, literal(-4)))
          CFI (cfiCond30) ?BRET_EXT load(1, XDATA, add(CFA_XSP16, literal(-3)))
          CFI (cfiCond30) DPL0 load(1, XDATA, add(CFA_XSP16, literal(-2)))
          CFI (cfiCond30) DPH0 load(1, XDATA, add(CFA_XSP16, literal(-1)))
          CFI (cfiCond30) CFA_SP SP+0
          CFI (cfiCond30) CFA_XSP16 add(XSP16, 14)
          CFI Block cfiCond31 Using cfiCommon0
          CFI (cfiCond31) Function usbsrGetDescriptor
          CFI (cfiCond31) Conditional ??CrossCallReturnLabel_21
          CFI (cfiCond31) R6 load(1, XDATA, add(CFA_XSP16, literal(-14)))
          CFI (cfiCond31) VB load(1, XDATA, add(CFA_XSP16, literal(-13)))
          CFI (cfiCond31) V0 load(1, XDATA, add(CFA_XSP16, literal(-12)))
          CFI (cfiCond31) V1 load(1, XDATA, add(CFA_XSP16, literal(-11)))
          CFI (cfiCond31) V2 load(1, XDATA, add(CFA_XSP16, literal(-10)))
          CFI (cfiCond31) V3 load(1, XDATA, add(CFA_XSP16, literal(-9)))
          CFI (cfiCond31) V4 load(1, XDATA, add(CFA_XSP16, literal(-8)))
          CFI (cfiCond31) V5 load(1, XDATA, add(CFA_XSP16, literal(-7)))
          CFI (cfiCond31) R7 load(1, XDATA, add(CFA_XSP16, literal(-6)))
          CFI (cfiCond31) ?RET_LOW load(1, XDATA, add(CFA_XSP16, literal(-5)))
          CFI (cfiCond31) ?RET_HIGH load(1, XDATA, add(CFA_XSP16, literal(-4)))
          CFI (cfiCond31) ?BRET_EXT load(1, XDATA, add(CFA_XSP16, literal(-3)))
          CFI (cfiCond31) DPL0 load(1, XDATA, add(CFA_XSP16, literal(-2)))
          CFI (cfiCond31) DPH0 load(1, XDATA, add(CFA_XSP16, literal(-1)))
          CFI (cfiCond31) CFA_SP SP+0
          CFI (cfiCond31) CFA_XSP16 add(XSP16, 14)
          CFI Block cfiPicker32 Using cfiCommon1
          CFI (cfiPicker32) NoFunction
          CFI (cfiPicker32) Picker
        MOVX    A,@DPTR
        MOV     R2,A
        INC     DPTR
        MOVX    A,@DPTR
        MOV     R3,A
        RET
          CFI EndBlock cfiCond28
          CFI EndBlock cfiCond29
          CFI EndBlock cfiCond30
          CFI EndBlock cfiCond31
          CFI EndBlock cfiPicker32

        RSEG BANKED_CODE:CODE:NOROOT(0)
?Subroutine13:
          CFI Block cfiCond33 Using cfiCommon0
          CFI Function usbfwSetupHandler
          CFI Conditional ??CrossCallReturnLabel_45
          CFI R6 load(1, XDATA, add(CFA_XSP16, literal(-11)))
          CFI VB load(1, XDATA, add(CFA_XSP16, literal(-10)))
          CFI V0 load(1, XDATA, add(CFA_XSP16, literal(-9)))
          CFI V1 load(1, XDATA, add(CFA_XSP16, literal(-8)))
          CFI V2 load(1, XDATA, add(CFA_XSP16, literal(-7)))
          CFI R7 load(1, XDATA, add(CFA_XSP16, literal(-6)))
          CFI ?RET_LOW load(1, XDATA, add(CFA_XSP16, literal(-5)))
          CFI ?RET_HIGH load(1, XDATA, add(CFA_XSP16, literal(-4)))
          CFI ?BRET_EXT load(1, XDATA, add(CFA_XSP16, literal(-3)))
          CFI DPL0 load(1, XDATA, add(CFA_XSP16, literal(-2)))
          CFI DPH0 load(1, XDATA, add(CFA_XSP16, literal(-1)))
          CFI CFA_SP SP+0
          CFI CFA_XSP16 add(XSP16, 11)
          CFI Block cfiCond34 Using cfiCommon0
          CFI (cfiCond34) Function usbsrGetDescriptor
          CFI (cfiCond34) Conditional ??CrossCallReturnLabel_46
          CFI (cfiCond34) R6 load(1, XDATA, add(CFA_XSP16, literal(-14)))
          CFI (cfiCond34) VB load(1, XDATA, add(CFA_XSP16, literal(-13)))
          CFI (cfiCond34) V0 load(1, XDATA, add(CFA_XSP16, literal(-12)))
          CFI (cfiCond34) V1 load(1, XDATA, add(CFA_XSP16, literal(-11)))
          CFI (cfiCond34) V2 load(1, XDATA, add(CFA_XSP16, literal(-10)))
          CFI (cfiCond34) V3 load(1, XDATA, add(CFA_XSP16, literal(-9)))
          CFI (cfiCond34) V4 load(1, XDATA, add(CFA_XSP16, literal(-8)))
          CFI (cfiCond34) V5 load(1, XDATA, add(CFA_XSP16, literal(-7)))
          CFI (cfiCond34) R7 load(1, XDATA, add(CFA_XSP16, literal(-6)))
          CFI (cfiCond34) ?RET_LOW load(1, XDATA, add(CFA_XSP16, literal(-5)))
          CFI (cfiCond34) ?RET_HIGH load(1, XDATA, add(CFA_XSP16, literal(-4)))
          CFI (cfiCond34) ?BRET_EXT load(1, XDATA, add(CFA_XSP16, literal(-3)))
          CFI (cfiCond34) DPL0 load(1, XDATA, add(CFA_XSP16, literal(-2)))
          CFI (cfiCond34) DPH0 load(1, XDATA, add(CFA_XSP16, literal(-1)))
          CFI (cfiCond34) CFA_SP SP+0
          CFI (cfiCond34) CFA_XSP16 add(XSP16, 14)
          CFI Block cfiPicker35 Using cfiCommon1
          CFI (cfiPicker35) NoFunction
          CFI (cfiPicker35) Picker
        MOV     DPTR,#usbSetupData + 3
          CFI EndBlock cfiCond33
          CFI EndBlock cfiCond34
          CFI EndBlock cfiPicker35
        REQUIRE ??Subroutine30_0
        ; // Fall through to label ??Subroutine30_0

        RSEG BANKED_CODE:CODE:NOROOT(0)
??Subroutine30_0:
          CFI Block cfiCond36 Using cfiCommon0
          CFI Function ublAesAuth
          CFI Conditional ??CrossCallReturnLabel_42
          CFI R6 load(1, XDATA, add(CFA_XSP16, literal(-10)))
          CFI VB load(1, XDATA, add(CFA_XSP16, literal(-9)))
          CFI V0 load(1, XDATA, add(CFA_XSP16, literal(-8)))
          CFI V1 load(1, XDATA, add(CFA_XSP16, literal(-7)))
          CFI R7 load(1, XDATA, add(CFA_XSP16, literal(-6)))
          CFI ?RET_LOW load(1, XDATA, add(CFA_XSP16, literal(-5)))
          CFI ?RET_HIGH load(1, XDATA, add(CFA_XSP16, literal(-4)))
          CFI ?BRET_EXT load(1, XDATA, add(CFA_XSP16, literal(-3)))
          CFI DPL0 load(1, XDATA, add(CFA_XSP16, literal(-2)))
          CFI DPH0 load(1, XDATA, add(CFA_XSP16, literal(-1)))
          CFI CFA_SP SP+0
          CFI CFA_XSP16 add(XSP16, 10)
          CFI Block cfiCond37 Using cfiCommon0
          CFI (cfiCond37) Function usbdpInit
          CFI (cfiCond37) Conditional ??CrossCallReturnLabel_43
          CFI (cfiCond37) DPL0 Frame(CFA_SP, 4)
          CFI (cfiCond37) DPH0 Frame(CFA_SP, 5)
          CFI (cfiCond37) CFA_SP SP+-5
          CFI Block cfiCond38 Using cfiCommon0
          CFI (cfiCond38) Function usbdpFindNext
          CFI (cfiCond38) Conditional ??CrossCallReturnLabel_44
          CFI (cfiCond38) DPL0 Frame(CFA_SP, 4)
          CFI (cfiCond38) DPH0 Frame(CFA_SP, 5)
          CFI (cfiCond38) CFA_SP SP+-5
          CFI Block cfiCond39 Using cfiCommon0
          CFI (cfiCond39) Function usbfwSetupHandler
          CFI (cfiCond39) Conditional ??CrossCallReturnLabel_45
          CFI (cfiCond39) R6 load(1, XDATA, add(CFA_XSP16, literal(-11)))
          CFI (cfiCond39) VB load(1, XDATA, add(CFA_XSP16, literal(-10)))
          CFI (cfiCond39) V0 load(1, XDATA, add(CFA_XSP16, literal(-9)))
          CFI (cfiCond39) V1 load(1, XDATA, add(CFA_XSP16, literal(-8)))
          CFI (cfiCond39) V2 load(1, XDATA, add(CFA_XSP16, literal(-7)))
          CFI (cfiCond39) R7 load(1, XDATA, add(CFA_XSP16, literal(-6)))
          CFI (cfiCond39) ?RET_LOW load(1, XDATA, add(CFA_XSP16, literal(-5)))
          CFI (cfiCond39) ?RET_HIGH load(1, XDATA, add(CFA_XSP16, literal(-4)))
          CFI (cfiCond39) ?BRET_EXT load(1, XDATA, add(CFA_XSP16, literal(-3)))
          CFI (cfiCond39) DPL0 load(1, XDATA, add(CFA_XSP16, literal(-2)))
          CFI (cfiCond39) DPH0 load(1, XDATA, add(CFA_XSP16, literal(-1)))
          CFI (cfiCond39) CFA_SP SP+0
          CFI (cfiCond39) CFA_XSP16 add(XSP16, 11)
          CFI Block cfiCond40 Using cfiCommon0
          CFI (cfiCond40) Function usbsrGetDescriptor
          CFI (cfiCond40) Conditional ??CrossCallReturnLabel_46
          CFI (cfiCond40) R6 load(1, XDATA, add(CFA_XSP16, literal(-14)))
          CFI (cfiCond40) VB load(1, XDATA, add(CFA_XSP16, literal(-13)))
          CFI (cfiCond40) V0 load(1, XDATA, add(CFA_XSP16, literal(-12)))
          CFI (cfiCond40) V1 load(1, XDATA, add(CFA_XSP16, literal(-11)))
          CFI (cfiCond40) V2 load(1, XDATA, add(CFA_XSP16, literal(-10)))
          CFI (cfiCond40) V3 load(1, XDATA, add(CFA_XSP16, literal(-9)))
          CFI (cfiCond40) V4 load(1, XDATA, add(CFA_XSP16, literal(-8)))
          CFI (cfiCond40) V5 load(1, XDATA, add(CFA_XSP16, literal(-7)))
          CFI (cfiCond40) R7 load(1, XDATA, add(CFA_XSP16, literal(-6)))
          CFI (cfiCond40) ?RET_LOW load(1, XDATA, add(CFA_XSP16, literal(-5)))
          CFI (cfiCond40) ?RET_HIGH load(1, XDATA, add(CFA_XSP16, literal(-4)))
          CFI (cfiCond40) ?BRET_EXT load(1, XDATA, add(CFA_XSP16, literal(-3)))
          CFI (cfiCond40) DPL0 load(1, XDATA, add(CFA_XSP16, literal(-2)))
          CFI (cfiCond40) DPH0 load(1, XDATA, add(CFA_XSP16, literal(-1)))
          CFI (cfiCond40) CFA_SP SP+0
          CFI (cfiCond40) CFA_XSP16 add(XSP16, 14)
          CFI Block cfiPicker41 Using cfiCommon1
          CFI (cfiPicker41) NoFunction
          CFI (cfiPicker41) Picker
        LCALL   ?Subroutine26 & 0xFFFF
??CrossCallReturnLabel_74:
        RET
          CFI EndBlock cfiCond36
          CFI EndBlock cfiCond37
          CFI EndBlock cfiCond38
          CFI EndBlock cfiCond39
          CFI EndBlock cfiCond40
          CFI EndBlock cfiPicker41

        RSEG BANKED_CODE:CODE:NOROOT(0)
?Subroutine26:
          CFI Block cfiCond42 Using cfiCommon0
          CFI Function ublExec
          CFI Conditional ??CrossCallReturnLabel_71, ??CrossCallReturnLabel_6
          CFI R6 load(1, XDATA, add(CFA_XSP16, literal(-12)))
          CFI VB load(1, XDATA, add(CFA_XSP16, literal(-11)))
          CFI V0 load(1, XDATA, add(CFA_XSP16, literal(-10)))
          CFI V1 load(1, XDATA, add(CFA_XSP16, literal(-9)))
          CFI V2 load(1, XDATA, add(CFA_XSP16, literal(-8)))
          CFI V3 load(1, XDATA, add(CFA_XSP16, literal(-7)))
          CFI R7 load(1, XDATA, add(CFA_XSP16, literal(-6)))
          CFI ?RET_LOW load(1, XDATA, add(CFA_XSP16, literal(-5)))
          CFI ?RET_HIGH load(1, XDATA, add(CFA_XSP16, literal(-4)))
          CFI ?BRET_EXT load(1, XDATA, add(CFA_XSP16, literal(-3)))
          CFI DPL0 load(1, XDATA, add(CFA_XSP16, literal(-2)))
          CFI DPH0 load(1, XDATA, add(CFA_XSP16, literal(-1)))
          CFI CFA_SP SP+0
          CFI CFA_XSP16 add(XSP16, 16)
          CFI Block cfiCond43 Using cfiCommon0
          CFI (cfiCond43) Function ublExec
          CFI (cfiCond43) Conditional ??CrossCallReturnLabel_71, ??CrossCallReturnLabel_7
          CFI (cfiCond43) R6 load(1, XDATA, add(CFA_XSP16, literal(-12)))
          CFI (cfiCond43) VB load(1, XDATA, add(CFA_XSP16, literal(-11)))
          CFI (cfiCond43) V0 load(1, XDATA, add(CFA_XSP16, literal(-10)))
          CFI (cfiCond43) V1 load(1, XDATA, add(CFA_XSP16, literal(-9)))
          CFI (cfiCond43) V2 load(1, XDATA, add(CFA_XSP16, literal(-8)))
          CFI (cfiCond43) V3 load(1, XDATA, add(CFA_XSP16, literal(-7)))
          CFI (cfiCond43) R7 load(1, XDATA, add(CFA_XSP16, literal(-6)))
          CFI (cfiCond43) ?RET_LOW load(1, XDATA, add(CFA_XSP16, literal(-5)))
          CFI (cfiCond43) ?RET_HIGH load(1, XDATA, add(CFA_XSP16, literal(-4)))
          CFI (cfiCond43) ?BRET_EXT load(1, XDATA, add(CFA_XSP16, literal(-3)))
          CFI (cfiCond43) DPL0 load(1, XDATA, add(CFA_XSP16, literal(-2)))
          CFI (cfiCond43) DPH0 load(1, XDATA, add(CFA_XSP16, literal(-1)))
          CFI (cfiCond43) CFA_SP SP+0
          CFI (cfiCond43) CFA_XSP16 add(XSP16, 16)
          CFI Block cfiCond44 Using cfiCommon0
          CFI (cfiCond44) Function ublInit
          CFI (cfiCond44) Conditional ??CrossCallReturnLabel_71, ??CrossCallReturnLabel_8
          CFI (cfiCond44) R6 load(1, XDATA, add(CFA_XSP16, literal(-16)))
          CFI (cfiCond44) VB load(1, XDATA, add(CFA_XSP16, literal(-15)))
          CFI (cfiCond44) V0 load(1, XDATA, add(CFA_XSP16, literal(-14)))
          CFI (cfiCond44) V1 load(1, XDATA, add(CFA_XSP16, literal(-13)))
          CFI (cfiCond44) V2 load(1, XDATA, add(CFA_XSP16, literal(-12)))
          CFI (cfiCond44) V3 load(1, XDATA, add(CFA_XSP16, literal(-11)))
          CFI (cfiCond44) V4 load(1, XDATA, add(CFA_XSP16, literal(-10)))
          CFI (cfiCond44) V5 load(1, XDATA, add(CFA_XSP16, literal(-9)))
          CFI (cfiCond44) V6 load(1, XDATA, add(CFA_XSP16, literal(-8)))
          CFI (cfiCond44) V7 load(1, XDATA, add(CFA_XSP16, literal(-7)))
          CFI (cfiCond44) R7 load(1, XDATA, add(CFA_XSP16, literal(-6)))
          CFI (cfiCond44) ?RET_LOW load(1, XDATA, add(CFA_XSP16, literal(-5)))
          CFI (cfiCond44) ?RET_HIGH load(1, XDATA, add(CFA_XSP16, literal(-4)))
          CFI (cfiCond44) ?BRET_EXT load(1, XDATA, add(CFA_XSP16, literal(-3)))
          CFI (cfiCond44) DPL0 load(1, XDATA, add(CFA_XSP16, literal(-2)))
          CFI (cfiCond44) DPH0 load(1, XDATA, add(CFA_XSP16, literal(-1)))
          CFI (cfiCond44) CFA_SP SP+0
          CFI (cfiCond44) CFA_XSP16 add(XSP16, 20)
          CFI Block cfiCond45 Using cfiCommon0
          CFI (cfiCond45) Function usbfwSetupHandler
          CFI (cfiCond45) Conditional ??CrossCallReturnLabel_74, ??CrossCallReturnLabel_45
          CFI (cfiCond45) R6 load(1, XDATA, add(CFA_XSP16, literal(-11)))
          CFI (cfiCond45) VB load(1, XDATA, add(CFA_XSP16, literal(-10)))
          CFI (cfiCond45) V0 load(1, XDATA, add(CFA_XSP16, literal(-9)))
          CFI (cfiCond45) V1 load(1, XDATA, add(CFA_XSP16, literal(-8)))
          CFI (cfiCond45) V2 load(1, XDATA, add(CFA_XSP16, literal(-7)))
          CFI (cfiCond45) R7 load(1, XDATA, add(CFA_XSP16, literal(-6)))
          CFI (cfiCond45) ?RET_LOW load(1, XDATA, add(CFA_XSP16, literal(-5)))
          CFI (cfiCond45) ?RET_HIGH load(1, XDATA, add(CFA_XSP16, literal(-4)))
          CFI (cfiCond45) ?BRET_EXT load(1, XDATA, add(CFA_XSP16, literal(-3)))
          CFI (cfiCond45) DPL0 load(1, XDATA, add(CFA_XSP16, literal(-2)))
          CFI (cfiCond45) DPH0 load(1, XDATA, add(CFA_XSP16, literal(-1)))
          CFI (cfiCond45) CFA_SP SP+0
          CFI (cfiCond45) CFA_XSP16 add(XSP16, 11)
          CFI Block cfiCond46 Using cfiCommon0
          CFI (cfiCond46) Function usbsrGetDescriptor
          CFI (cfiCond46) Conditional ??CrossCallReturnLabel_74, ??CrossCallReturnLabel_46
          CFI (cfiCond46) R6 load(1, XDATA, add(CFA_XSP16, literal(-14)))
          CFI (cfiCond46) VB load(1, XDATA, add(CFA_XSP16, literal(-13)))
          CFI (cfiCond46) V0 load(1, XDATA, add(CFA_XSP16, literal(-12)))
          CFI (cfiCond46) V1 load(1, XDATA, add(CFA_XSP16, literal(-11)))
          CFI (cfiCond46) V2 load(1, XDATA, add(CFA_XSP16, literal(-10)))
          CFI (cfiCond46) V3 load(1, XDATA, add(CFA_XSP16, literal(-9)))
          CFI (cfiCond46) V4 load(1, XDATA, add(CFA_XSP16, literal(-8)))
          CFI (cfiCond46) V5 load(1, XDATA, add(CFA_XSP16, literal(-7)))
          CFI (cfiCond46) R7 load(1, XDATA, add(CFA_XSP16, literal(-6)))
          CFI (cfiCond46) ?RET_LOW load(1, XDATA, add(CFA_XSP16, literal(-5)))
          CFI (cfiCond46) ?RET_HIGH load(1, XDATA, add(CFA_XSP16, literal(-4)))
          CFI (cfiCond46) ?BRET_EXT load(1, XDATA, add(CFA_XSP16, literal(-3)))
          CFI (cfiCond46) DPL0 load(1, XDATA, add(CFA_XSP16, literal(-2)))
          CFI (cfiCond46) DPH0 load(1, XDATA, add(CFA_XSP16, literal(-1)))
          CFI (cfiCond46) CFA_SP SP+0
          CFI (cfiCond46) CFA_XSP16 add(XSP16, 14)
          CFI Block cfiCond47 Using cfiCommon0
          CFI (cfiCond47) Function ublAesAuth
          CFI (cfiCond47) Conditional ??CrossCallReturnLabel_74, ??CrossCallReturnLabel_42
          CFI (cfiCond47) R6 load(1, XDATA, add(CFA_XSP16, literal(-10)))
          CFI (cfiCond47) VB load(1, XDATA, add(CFA_XSP16, literal(-9)))
          CFI (cfiCond47) V0 load(1, XDATA, add(CFA_XSP16, literal(-8)))
          CFI (cfiCond47) V1 load(1, XDATA, add(CFA_XSP16, literal(-7)))
          CFI (cfiCond47) R7 load(1, XDATA, add(CFA_XSP16, literal(-6)))
          CFI (cfiCond47) ?RET_LOW load(1, XDATA, add(CFA_XSP16, literal(-5)))
          CFI (cfiCond47) ?RET_HIGH load(1, XDATA, add(CFA_XSP16, literal(-4)))
          CFI (cfiCond47) ?BRET_EXT load(1, XDATA, add(CFA_XSP16, literal(-3)))
          CFI (cfiCond47) DPL0 load(1, XDATA, add(CFA_XSP16, literal(-2)))
          CFI (cfiCond47) DPH0 load(1, XDATA, add(CFA_XSP16, literal(-1)))
          CFI (cfiCond47) CFA_SP SP+0
          CFI (cfiCond47) CFA_XSP16 add(XSP16, 10)
          CFI Block cfiCond48 Using cfiCommon0
          CFI (cfiCond48) Function usbdpInit
          CFI (cfiCond48) Conditional ??CrossCallReturnLabel_74, ??CrossCallReturnLabel_43
          CFI (cfiCond48) DPL0 Frame(CFA_SP, 4)
          CFI (cfiCond48) DPH0 Frame(CFA_SP, 5)
          CFI (cfiCond48) CFA_SP SP+-5
          CFI Block cfiCond49 Using cfiCommon0
          CFI (cfiCond49) Function usbdpFindNext
          CFI (cfiCond49) Conditional ??CrossCallReturnLabel_74, ??CrossCallReturnLabel_44
          CFI (cfiCond49) DPL0 Frame(CFA_SP, 4)
          CFI (cfiCond49) DPH0 Frame(CFA_SP, 5)
          CFI (cfiCond49) CFA_SP SP+-5
          CFI Block cfiCond50 Using cfiCommon0
          CFI (cfiCond50) Function usbdpGetDeviceDesc
          CFI (cfiCond50) Conditional ??CrossCallReturnLabel_72, ??CrossCallReturnLabel_9
          CFI (cfiCond50) DPL0 Frame(CFA_SP, 4)
          CFI (cfiCond50) DPH0 Frame(CFA_SP, 5)
          CFI (cfiCond50) CFA_SP SP+-5
          CFI Block cfiCond51 Using cfiCommon0
          CFI (cfiCond51) Function usbdpGetConfigurationDesc
          CFI (cfiCond51) Conditional ??CrossCallReturnLabel_72, ??CrossCallReturnLabel_10
          CFI (cfiCond51) R6 load(1, XDATA, add(CFA_XSP16, literal(-10)))
          CFI (cfiCond51) VB load(1, XDATA, add(CFA_XSP16, literal(-9)))
          CFI (cfiCond51) V0 load(1, XDATA, add(CFA_XSP16, literal(-8)))
          CFI (cfiCond51) V1 load(1, XDATA, add(CFA_XSP16, literal(-7)))
          CFI (cfiCond51) R7 load(1, XDATA, add(CFA_XSP16, literal(-6)))
          CFI (cfiCond51) ?RET_LOW load(1, XDATA, add(CFA_XSP16, literal(-5)))
          CFI (cfiCond51) ?RET_HIGH load(1, XDATA, add(CFA_XSP16, literal(-4)))
          CFI (cfiCond51) ?BRET_EXT load(1, XDATA, add(CFA_XSP16, literal(-3)))
          CFI (cfiCond51) DPL0 load(1, XDATA, add(CFA_XSP16, literal(-2)))
          CFI (cfiCond51) DPH0 load(1, XDATA, add(CFA_XSP16, literal(-1)))
          CFI (cfiCond51) CFA_SP SP+0
          CFI (cfiCond51) CFA_XSP16 add(XSP16, 10)
          CFI Block cfiCond52 Using cfiCommon0
          CFI (cfiCond52) Function usbsrSetAddress
          CFI (cfiCond52) Conditional ??CrossCallReturnLabel_73, ??CrossCallReturnLabel_13
          CFI (cfiCond52) DPL0 Frame(CFA_SP, 4)
          CFI (cfiCond52) DPH0 Frame(CFA_SP, 5)
          CFI (cfiCond52) CFA_SP SP+-5
          CFI Block cfiCond53 Using cfiCommon0
          CFI (cfiCond53) Function usbsrGetDescriptor
          CFI (cfiCond53) Conditional ??CrossCallReturnLabel_73, ??CrossCallReturnLabel_14
          CFI (cfiCond53) R6 load(1, XDATA, add(CFA_XSP16, literal(-14)))
          CFI (cfiCond53) VB load(1, XDATA, add(CFA_XSP16, literal(-13)))
          CFI (cfiCond53) V0 load(1, XDATA, add(CFA_XSP16, literal(-12)))
          CFI (cfiCond53) V1 load(1, XDATA, add(CFA_XSP16, literal(-11)))
          CFI (cfiCond53) V2 load(1, XDATA, add(CFA_XSP16, literal(-10)))
          CFI (cfiCond53) V3 load(1, XDATA, add(CFA_XSP16, literal(-9)))
          CFI (cfiCond53) V4 load(1, XDATA, add(CFA_XSP16, literal(-8)))
          CFI (cfiCond53) V5 load(1, XDATA, add(CFA_XSP16, literal(-7)))
          CFI (cfiCond53) R7 load(1, XDATA, add(CFA_XSP16, literal(-6)))
          CFI (cfiCond53) ?RET_LOW load(1, XDATA, add(CFA_XSP16, literal(-5)))
          CFI (cfiCond53) ?RET_HIGH load(1, XDATA, add(CFA_XSP16, literal(-4)))
          CFI (cfiCond53) ?BRET_EXT load(1, XDATA, add(CFA_XSP16, literal(-3)))
          CFI (cfiCond53) DPL0 load(1, XDATA, add(CFA_XSP16, literal(-2)))
          CFI (cfiCond53) DPH0 load(1, XDATA, add(CFA_XSP16, literal(-1)))
          CFI (cfiCond53) CFA_SP SP+0
          CFI (cfiCond53) CFA_XSP16 add(XSP16, 14)
          CFI Block cfiCond54 Using cfiCommon0
          CFI (cfiCond54) Function ??ConfigureEndpoints
          CFI (cfiCond54) Conditional ??CrossCallReturnLabel_73, ??CrossCallReturnLabel_15
          CFI (cfiCond54) R6 load(1, XDATA, add(CFA_XSP16, literal(-19)))
          CFI (cfiCond54) VB load(1, XDATA, add(CFA_XSP16, literal(-18)))
          CFI (cfiCond54) V0 load(1, XDATA, add(CFA_XSP16, literal(-17)))
          CFI (cfiCond54) V1 load(1, XDATA, add(CFA_XSP16, literal(-16)))
          CFI (cfiCond54) V2 load(1, XDATA, add(CFA_XSP16, literal(-15)))
          CFI (cfiCond54) V3 load(1, XDATA, add(CFA_XSP16, literal(-14)))
          CFI (cfiCond54) V4 load(1, XDATA, add(CFA_XSP16, literal(-13)))
          CFI (cfiCond54) V5 load(1, XDATA, add(CFA_XSP16, literal(-12)))
          CFI (cfiCond54) V6 load(1, XDATA, add(CFA_XSP16, literal(-11)))
          CFI (cfiCond54) V7 load(1, XDATA, add(CFA_XSP16, literal(-10)))
          CFI (cfiCond54) V8 load(1, XDATA, add(CFA_XSP16, literal(-9)))
          CFI (cfiCond54) V9 load(1, XDATA, add(CFA_XSP16, literal(-8)))
          CFI (cfiCond54) V10 load(1, XDATA, add(CFA_XSP16, literal(-7)))
          CFI (cfiCond54) R7 load(1, XDATA, add(CFA_XSP16, literal(-6)))
          CFI (cfiCond54) ?RET_LOW load(1, XDATA, add(CFA_XSP16, literal(-5)))
          CFI (cfiCond54) ?RET_HIGH load(1, XDATA, add(CFA_XSP16, literal(-4)))
          CFI (cfiCond54) ?BRET_EXT load(1, XDATA, add(CFA_XSP16, literal(-3)))
          CFI (cfiCond54) DPL0 load(1, XDATA, add(CFA_XSP16, literal(-2)))
          CFI (cfiCond54) DPH0 load(1, XDATA, add(CFA_XSP16, literal(-1)))
          CFI (cfiCond54) CFA_SP SP+0
          CFI (cfiCond54) CFA_XSP16 add(XSP16, 19)
          CFI Block cfiCond55 Using cfiCommon0
          CFI (cfiCond55) Function usbsrGetStatus
          CFI (cfiCond55) Conditional ??CrossCallReturnLabel_75, ??CrossCallReturnLabel_68
          CFI (cfiCond55) R6 load(1, XDATA, add(CFA_XSP16, literal(-10)))
          CFI (cfiCond55) VB load(1, XDATA, add(CFA_XSP16, literal(-9)))
          CFI (cfiCond55) V0 load(1, XDATA, add(CFA_XSP16, literal(-8)))
          CFI (cfiCond55) V1 load(1, XDATA, add(CFA_XSP16, literal(-7)))
          CFI (cfiCond55) R7 load(1, XDATA, add(CFA_XSP16, literal(-6)))
          CFI (cfiCond55) ?RET_LOW load(1, XDATA, add(CFA_XSP16, literal(-5)))
          CFI (cfiCond55) ?RET_HIGH load(1, XDATA, add(CFA_XSP16, literal(-4)))
          CFI (cfiCond55) ?BRET_EXT load(1, XDATA, add(CFA_XSP16, literal(-3)))
          CFI (cfiCond55) DPL0 load(1, XDATA, add(CFA_XSP16, literal(-2)))
          CFI (cfiCond55) DPH0 load(1, XDATA, add(CFA_XSP16, literal(-1)))
          CFI (cfiCond55) CFA_SP SP+0
          CFI (cfiCond55) CFA_XSP16 add(XSP16, 10)
          CFI Block cfiCond56 Using cfiCommon0
          CFI (cfiCond56) Function usbsrGetConfiguration
          CFI (cfiCond56) Conditional ??CrossCallReturnLabel_75, ??CrossCallReturnLabel_69
          CFI (cfiCond56) DPL0 Frame(CFA_SP, 4)
          CFI (cfiCond56) DPH0 Frame(CFA_SP, 5)
          CFI (cfiCond56) CFA_SP SP+-5
          CFI Block cfiCond57 Using cfiCommon0
          CFI (cfiCond57) Function usbsrGetInterface
          CFI (cfiCond57) Conditional ??CrossCallReturnLabel_75, ??CrossCallReturnLabel_70
          CFI (cfiCond57) R6 load(1, XDATA, add(CFA_XSP16, literal(-11)))
          CFI (cfiCond57) VB load(1, XDATA, add(CFA_XSP16, literal(-10)))
          CFI (cfiCond57) V0 load(1, XDATA, add(CFA_XSP16, literal(-9)))
          CFI (cfiCond57) V1 load(1, XDATA, add(CFA_XSP16, literal(-8)))
          CFI (cfiCond57) V2 load(1, XDATA, add(CFA_XSP16, literal(-7)))
          CFI (cfiCond57) R7 load(1, XDATA, add(CFA_XSP16, literal(-6)))
          CFI (cfiCond57) ?RET_LOW load(1, XDATA, add(CFA_XSP16, literal(-5)))
          CFI (cfiCond57) ?RET_HIGH load(1, XDATA, add(CFA_XSP16, literal(-4)))
          CFI (cfiCond57) ?BRET_EXT load(1, XDATA, add(CFA_XSP16, literal(-3)))
          CFI (cfiCond57) DPL0 load(1, XDATA, add(CFA_XSP16, literal(-2)))
          CFI (cfiCond57) DPH0 load(1, XDATA, add(CFA_XSP16, literal(-1)))
          CFI (cfiCond57) CFA_SP SP+0
          CFI (cfiCond57) CFA_XSP16 add(XSP16, 11)
          CFI Block cfiCond58 Using cfiCommon0
          CFI (cfiCond58) Function ublExec
          CFI (cfiCond58) Conditional ??CrossCallReturnLabel_75, ??CrossCallReturnLabel_58
          CFI (cfiCond58) R6 load(1, XDATA, add(CFA_XSP16, literal(-12)))
          CFI (cfiCond58) VB load(1, XDATA, add(CFA_XSP16, literal(-11)))
          CFI (cfiCond58) V0 load(1, XDATA, add(CFA_XSP16, literal(-10)))
          CFI (cfiCond58) V1 load(1, XDATA, add(CFA_XSP16, literal(-9)))
          CFI (cfiCond58) V2 load(1, XDATA, add(CFA_XSP16, literal(-8)))
          CFI (cfiCond58) V3 load(1, XDATA, add(CFA_XSP16, literal(-7)))
          CFI (cfiCond58) R7 load(1, XDATA, add(CFA_XSP16, literal(-6)))
          CFI (cfiCond58) ?RET_LOW load(1, XDATA, add(CFA_XSP16, literal(-5)))
          CFI (cfiCond58) ?RET_HIGH load(1, XDATA, add(CFA_XSP16, literal(-4)))
          CFI (cfiCond58) ?BRET_EXT load(1, XDATA, add(CFA_XSP16, literal(-3)))
          CFI (cfiCond58) DPL0 load(1, XDATA, add(CFA_XSP16, literal(-2)))
          CFI (cfiCond58) DPH0 load(1, XDATA, add(CFA_XSP16, literal(-1)))
          CFI (cfiCond58) CFA_SP SP+0
          CFI (cfiCond58) CFA_XSP16 add(XSP16, 16)
          CFI Block cfiCond59 Using cfiCommon0
          CFI (cfiCond59) Function usbfwSetupHandler
          CFI (cfiCond59) Conditional ??CrossCallReturnLabel_75, ??CrossCallReturnLabel_59
          CFI (cfiCond59) R6 load(1, XDATA, add(CFA_XSP16, literal(-11)))
          CFI (cfiCond59) VB load(1, XDATA, add(CFA_XSP16, literal(-10)))
          CFI (cfiCond59) V0 load(1, XDATA, add(CFA_XSP16, literal(-9)))
          CFI (cfiCond59) V1 load(1, XDATA, add(CFA_XSP16, literal(-8)))
          CFI (cfiCond59) V2 load(1, XDATA, add(CFA_XSP16, literal(-7)))
          CFI (cfiCond59) R7 load(1, XDATA, add(CFA_XSP16, literal(-6)))
          CFI (cfiCond59) ?RET_LOW load(1, XDATA, add(CFA_XSP16, literal(-5)))
          CFI (cfiCond59) ?RET_HIGH load(1, XDATA, add(CFA_XSP16, literal(-4)))
          CFI (cfiCond59) ?BRET_EXT load(1, XDATA, add(CFA_XSP16, literal(-3)))
          CFI (cfiCond59) DPL0 load(1, XDATA, add(CFA_XSP16, literal(-2)))
          CFI (cfiCond59) DPH0 load(1, XDATA, add(CFA_XSP16, literal(-1)))
          CFI (cfiCond59) CFA_SP SP+0
          CFI (cfiCond59) CFA_XSP16 add(XSP16, 11)
          CFI Block cfiCond60 Using cfiCommon0
          CFI (cfiCond60) Function ??ChangeFeature
          CFI (cfiCond60) Conditional ??CrossCallReturnLabel_75, ??CrossCallReturnLabel_60
          CFI (cfiCond60) R6 load(1, XDATA, add(CFA_XSP16, literal(-10)))
          CFI (cfiCond60) VB load(1, XDATA, add(CFA_XSP16, literal(-9)))
          CFI (cfiCond60) V0 load(1, XDATA, add(CFA_XSP16, literal(-8)))
          CFI (cfiCond60) V1 load(1, XDATA, add(CFA_XSP16, literal(-7)))
          CFI (cfiCond60) R7 load(1, XDATA, add(CFA_XSP16, literal(-6)))
          CFI (cfiCond60) ?RET_LOW load(1, XDATA, add(CFA_XSP16, literal(-5)))
          CFI (cfiCond60) ?RET_HIGH load(1, XDATA, add(CFA_XSP16, literal(-4)))
          CFI (cfiCond60) ?BRET_EXT load(1, XDATA, add(CFA_XSP16, literal(-3)))
          CFI (cfiCond60) DPL0 load(1, XDATA, add(CFA_XSP16, literal(-2)))
          CFI (cfiCond60) DPH0 load(1, XDATA, add(CFA_XSP16, literal(-1)))
          CFI (cfiCond60) CFA_SP SP+0
          CFI (cfiCond60) CFA_XSP16 add(XSP16, 10)
          CFI Block cfiCond61 Using cfiCommon0
          CFI (cfiCond61) Function ??ChangeFeature
          CFI (cfiCond61) Conditional ??CrossCallReturnLabel_75, ??CrossCallReturnLabel_61
          CFI (cfiCond61) R6 load(1, XDATA, add(CFA_XSP16, literal(-10)))
          CFI (cfiCond61) VB load(1, XDATA, add(CFA_XSP16, literal(-9)))
          CFI (cfiCond61) V0 load(1, XDATA, add(CFA_XSP16, literal(-8)))
          CFI (cfiCond61) V1 load(1, XDATA, add(CFA_XSP16, literal(-7)))
          CFI (cfiCond61) R7 load(1, XDATA, add(CFA_XSP16, literal(-6)))
          CFI (cfiCond61) ?RET_LOW load(1, XDATA, add(CFA_XSP16, literal(-5)))
          CFI (cfiCond61) ?RET_HIGH load(1, XDATA, add(CFA_XSP16, literal(-4)))
          CFI (cfiCond61) ?BRET_EXT load(1, XDATA, add(CFA_XSP16, literal(-3)))
          CFI (cfiCond61) DPL0 load(1, XDATA, add(CFA_XSP16, literal(-2)))
          CFI (cfiCond61) DPH0 load(1, XDATA, add(CFA_XSP16, literal(-1)))
          CFI (cfiCond61) CFA_SP SP+0
          CFI (cfiCond61) CFA_XSP16 add(XSP16, 10)
          CFI Block cfiCond62 Using cfiCommon0
          CFI (cfiCond62) Function usbsrSetAddress
          CFI (cfiCond62) Conditional ??CrossCallReturnLabel_75, ??CrossCallReturnLabel_62
          CFI (cfiCond62) DPL0 Frame(CFA_SP, 4)
          CFI (cfiCond62) DPH0 Frame(CFA_SP, 5)
          CFI (cfiCond62) CFA_SP SP+-5
          CFI Block cfiCond63 Using cfiCommon0
          CFI (cfiCond63) Function usbsrSetAddress
          CFI (cfiCond63) Conditional ??CrossCallReturnLabel_75, ??CrossCallReturnLabel_63
          CFI (cfiCond63) DPL0 Frame(CFA_SP, 4)
          CFI (cfiCond63) DPH0 Frame(CFA_SP, 5)
          CFI (cfiCond63) CFA_SP SP+-5
          CFI Block cfiCond64 Using cfiCommon0
          CFI (cfiCond64) Function usbsrGetConfiguration
          CFI (cfiCond64) Conditional ??CrossCallReturnLabel_75, ??CrossCallReturnLabel_64
          CFI (cfiCond64) DPL0 Frame(CFA_SP, 4)
          CFI (cfiCond64) DPH0 Frame(CFA_SP, 5)
          CFI (cfiCond64) CFA_SP SP+-5
          CFI Block cfiCond65 Using cfiCommon0
          CFI (cfiCond65) Function usbsrSetConfiguration
          CFI (cfiCond65) Conditional ??CrossCallReturnLabel_75, ??CrossCallReturnLabel_65
          CFI (cfiCond65) R6 load(1, XDATA, add(CFA_XSP16, literal(-12)))
          CFI (cfiCond65) VB load(1, XDATA, add(CFA_XSP16, literal(-11)))
          CFI (cfiCond65) V0 load(1, XDATA, add(CFA_XSP16, literal(-10)))
          CFI (cfiCond65) V1 load(1, XDATA, add(CFA_XSP16, literal(-9)))
          CFI (cfiCond65) V2 load(1, XDATA, add(CFA_XSP16, literal(-8)))
          CFI (cfiCond65) V3 load(1, XDATA, add(CFA_XSP16, literal(-7)))
          CFI (cfiCond65) R7 load(1, XDATA, add(CFA_XSP16, literal(-6)))
          CFI (cfiCond65) ?RET_LOW load(1, XDATA, add(CFA_XSP16, literal(-5)))
          CFI (cfiCond65) ?RET_HIGH load(1, XDATA, add(CFA_XSP16, literal(-4)))
          CFI (cfiCond65) ?BRET_EXT load(1, XDATA, add(CFA_XSP16, literal(-3)))
          CFI (cfiCond65) DPL0 load(1, XDATA, add(CFA_XSP16, literal(-2)))
          CFI (cfiCond65) DPH0 load(1, XDATA, add(CFA_XSP16, literal(-1)))
          CFI (cfiCond65) CFA_SP SP+0
          CFI (cfiCond65) CFA_XSP16 add(XSP16, 12)
          CFI Block cfiCond66 Using cfiCommon0
          CFI (cfiCond66) Function usbsrSetConfiguration
          CFI (cfiCond66) Conditional ??CrossCallReturnLabel_75, ??CrossCallReturnLabel_66
          CFI (cfiCond66) R6 load(1, XDATA, add(CFA_XSP16, literal(-12)))
          CFI (cfiCond66) VB load(1, XDATA, add(CFA_XSP16, literal(-11)))
          CFI (cfiCond66) V0 load(1, XDATA, add(CFA_XSP16, literal(-10)))
          CFI (cfiCond66) V1 load(1, XDATA, add(CFA_XSP16, literal(-9)))
          CFI (cfiCond66) V2 load(1, XDATA, add(CFA_XSP16, literal(-8)))
          CFI (cfiCond66) V3 load(1, XDATA, add(CFA_XSP16, literal(-7)))
          CFI (cfiCond66) R7 load(1, XDATA, add(CFA_XSP16, literal(-6)))
          CFI (cfiCond66) ?RET_LOW load(1, XDATA, add(CFA_XSP16, literal(-5)))
          CFI (cfiCond66) ?RET_HIGH load(1, XDATA, add(CFA_XSP16, literal(-4)))
          CFI (cfiCond66) ?BRET_EXT load(1, XDATA, add(CFA_XSP16, literal(-3)))
          CFI (cfiCond66) DPL0 load(1, XDATA, add(CFA_XSP16, literal(-2)))
          CFI (cfiCond66) DPH0 load(1, XDATA, add(CFA_XSP16, literal(-1)))
          CFI (cfiCond66) CFA_SP SP+0
          CFI (cfiCond66) CFA_XSP16 add(XSP16, 12)
          CFI Block cfiCond67 Using cfiCommon0
          CFI (cfiCond67) Function usbsrSetInterface
          CFI (cfiCond67) Conditional ??CrossCallReturnLabel_75, ??CrossCallReturnLabel_67
          CFI (cfiCond67) R6 load(1, XDATA, add(CFA_XSP16, literal(-12)))
          CFI (cfiCond67) VB load(1, XDATA, add(CFA_XSP16, literal(-11)))
          CFI (cfiCond67) V0 load(1, XDATA, add(CFA_XSP16, literal(-10)))
          CFI (cfiCond67) V1 load(1, XDATA, add(CFA_XSP16, literal(-9)))
          CFI (cfiCond67) V2 load(1, XDATA, add(CFA_XSP16, literal(-8)))
          CFI (cfiCond67) V3 load(1, XDATA, add(CFA_XSP16, literal(-7)))
          CFI (cfiCond67) R7 load(1, XDATA, add(CFA_XSP16, literal(-6)))
          CFI (cfiCond67) ?RET_LOW load(1, XDATA, add(CFA_XSP16, literal(-5)))
          CFI (cfiCond67) ?RET_HIGH load(1, XDATA, add(CFA_XSP16, literal(-4)))
          CFI (cfiCond67) ?BRET_EXT load(1, XDATA, add(CFA_XSP16, literal(-3)))
          CFI (cfiCond67) DPL0 load(1, XDATA, add(CFA_XSP16, literal(-2)))
          CFI (cfiCond67) DPH0 load(1, XDATA, add(CFA_XSP16, literal(-1)))
          CFI (cfiCond67) CFA_SP SP+0
          CFI (cfiCond67) CFA_XSP16 add(XSP16, 12)
          CFI Block cfiPicker68 Using cfiCommon1
          CFI (cfiPicker68) NoFunction
          CFI (cfiPicker68) Picker
        MOVX    A,@DPTR
        MOV     R0,A
        INC     DPTR
        MOVX    A,@DPTR
        MOV     R1,A
        RET
          CFI EndBlock cfiCond42
          CFI EndBlock cfiCond43
          CFI EndBlock cfiCond44
          CFI EndBlock cfiCond45
          CFI EndBlock cfiCond46
          CFI EndBlock cfiCond47
          CFI EndBlock cfiCond48
          CFI EndBlock cfiCond49
          CFI EndBlock cfiCond50
          CFI EndBlock cfiCond51
          CFI EndBlock cfiCond52
          CFI EndBlock cfiCond53
          CFI EndBlock cfiCond54
          CFI EndBlock cfiCond55
          CFI EndBlock cfiCond56
          CFI EndBlock cfiCond57
          CFI EndBlock cfiCond58
          CFI EndBlock cfiCond59
          CFI EndBlock cfiCond60
          CFI EndBlock cfiCond61
          CFI EndBlock cfiCond62
          CFI EndBlock cfiCond63
          CFI EndBlock cfiCond64
          CFI EndBlock cfiCond65
          CFI EndBlock cfiCond66
          CFI EndBlock cfiCond67
          CFI EndBlock cfiPicker68

        RSEG BANKED_CODE:CODE:NOROOT(0)
?Subroutine6:
          CFI Block cfiCond69 Using cfiCommon0
          CFI Function usbdpFindNext
          CFI Conditional ??CrossCallReturnLabel_0
          CFI DPL0 Frame(CFA_SP, 4)
          CFI DPH0 Frame(CFA_SP, 5)
          CFI CFA_SP SP+-5
          CFI Block cfiCond70 Using cfiCommon0
          CFI (cfiCond70) Function usbdpFindNext
          CFI (cfiCond70) Conditional ??CrossCallReturnLabel_1
          CFI (cfiCond70) DPL0 Frame(CFA_SP, 4)
          CFI (cfiCond70) DPH0 Frame(CFA_SP, 5)
          CFI (cfiCond70) CFA_SP SP+-5
          CFI Block cfiPicker71 Using cfiCommon1
          CFI (cfiPicker71) NoFunction
          CFI (cfiPicker71) Picker
        MOV     DPTR,#??usbdpData
        LCALL   ?Subroutine27 & 0xFFFF
??CrossCallReturnLabel_41:
        CLR     A
        MOVC    A,@A+DPTR
        MOV     R0,A
        MOV     DPTR,#??usbdpData
        MOVX    A,@DPTR
        ADD     A,R0
        MOV     R0,A
        INC     DPTR
        MOVX    A,@DPTR
        ADDC    A,#0x0
        MOV     R1,A
        MOV     DPTR,#??usbdpData
        MOV     A,R0
        MOVX    @DPTR,A
        INC     DPTR
        MOV     A,R1
        MOVX    @DPTR,A
        RET
          CFI EndBlock cfiCond69
          CFI EndBlock cfiCond70
          CFI EndBlock cfiPicker71

        RSEG BANKED_CODE:CODE:NOROOT(0)
?Subroutine27:
          CFI Block cfiCond72 Using cfiCommon0
          CFI Function ublExec
          CFI Conditional ??CrossCallReturnLabel_40
          CFI R6 load(1, XDATA, add(CFA_XSP16, literal(-12)))
          CFI VB load(1, XDATA, add(CFA_XSP16, literal(-11)))
          CFI V0 load(1, XDATA, add(CFA_XSP16, literal(-10)))
          CFI V1 load(1, XDATA, add(CFA_XSP16, literal(-9)))
          CFI V2 load(1, XDATA, add(CFA_XSP16, literal(-8)))
          CFI V3 load(1, XDATA, add(CFA_XSP16, literal(-7)))
          CFI R7 load(1, XDATA, add(CFA_XSP16, literal(-6)))
          CFI ?RET_LOW load(1, XDATA, add(CFA_XSP16, literal(-5)))
          CFI ?RET_HIGH load(1, XDATA, add(CFA_XSP16, literal(-4)))
          CFI ?BRET_EXT load(1, XDATA, add(CFA_XSP16, literal(-3)))
          CFI DPL0 load(1, XDATA, add(CFA_XSP16, literal(-2)))
          CFI DPH0 load(1, XDATA, add(CFA_XSP16, literal(-1)))
          CFI CFA_SP SP+0
          CFI CFA_XSP16 add(XSP16, 16)
          CFI Block cfiCond73 Using cfiCommon0
          CFI (cfiCond73) Function usbdpFindNext
          CFI (cfiCond73) Conditional ??CrossCallReturnLabel_41, ??CrossCallReturnLabel_0
          CFI (cfiCond73) DPL0 Frame(CFA_SP, 4)
          CFI (cfiCond73) DPH0 Frame(CFA_SP, 5)
          CFI (cfiCond73) CFA_SP SP+-5
          CFI Block cfiCond74 Using cfiCommon0
          CFI (cfiCond74) Function usbdpFindNext
          CFI (cfiCond74) Conditional ??CrossCallReturnLabel_41, ??CrossCallReturnLabel_1
          CFI (cfiCond74) DPL0 Frame(CFA_SP, 4)
          CFI (cfiCond74) DPH0 Frame(CFA_SP, 5)
          CFI (cfiCond74) CFA_SP SP+-5
          CFI Block cfiPicker75 Using cfiCommon1
          CFI (cfiPicker75) NoFunction
          CFI (cfiPicker75) Picker
        MOVX    A,@DPTR
        MOV     R0,A
        INC     DPTR
        MOVX    A,@DPTR
        MOV     DPH,A
        MOV     DPL,R0
        RET
          CFI EndBlock cfiCond72
          CFI EndBlock cfiCond73
          CFI EndBlock cfiCond74
          CFI EndBlock cfiPicker75
//  172 
//  173 
//  174 
//  175 
//  176 /** \brief	Locates the (one and only) device descriptor
//  177 *
//  178 * \note It is not necessary to call \ref usbdpInit() before this function.
//  179 *
//  180 * \return
//  181 *     A pointer to the \ref USB_DEVICE_DESCRIPTOR, or \c NULL if it was not found.
//  182 */

        RSEG BANKED_CODE:CODE:NOROOT(0)
//  183 USB_DEVICE_DESCRIPTOR __code* usbdpGetDeviceDesc(void)
usbdpGetDeviceDesc:
          CFI Block cfiBlock76 Using cfiCommon0
          CFI Function usbdpGetDeviceDesc
        CODE
//  184 {
        FUNCALL usbdpGetDeviceDesc, usbdpFindNext
        LOCFRAME ISTACK, 2, STACK
        LOCFRAME PSTACK, 0, STACK
        LOCFRAME XSTACK, 0, STACK
        LOCFRAME IOVERLAY, 0, STATIC
        LOCFRAME DOVERLAY, 0, STATIC
        ARGFRAME ISTACK, 2, STACK
        ARGFRAME PSTACK, 0, STACK
        ARGFRAME XSTACK, 0, STACK
        ARGFRAME IOVERLAY, 0, STATIC
        ARGFRAME DOVERLAY, 0, STATIC
        PUSH    DPL
          CFI DPL0 Frame(CFA_SP, 4)
          CFI CFA_SP SP+-4
        PUSH    DPH
          CFI DPH0 Frame(CFA_SP, 5)
          CFI CFA_SP SP+-5
        ; Saved register size: 2
        ; Auto size: 0
//  185    usbdpInit();
        LCALL   ?Subroutine10 & 0xFFFF
//  186    return usbdpFindNext(DESC_TYPE_DEVICE, 0);
??CrossCallReturnLabel_9:
        ; Setup parameters for call to function usbdpFindNext
        MOV     R2,#0x0
        MOV     R1,#0x1
        LCALL   ??usbdpFindNext?relay
        SJMP    ??Subroutine32_0
          CFI EndBlock cfiBlock76
//  187 } // usbdpGetDeviceDesc

        RSEG BANKED_CODE:CODE:NOROOT(0)
?Subroutine1:
          CFI Block cfiBlock77 Using cfiCommon0
          CFI NoFunction
          CFI CFA_SP SP+-5
          CFI DPL0 Frame(CFA_SP, 4)
          CFI DPH0 Frame(CFA_SP, 5)
        MOVX    @DPTR,A
        MOV     DPTR,#0x6270
        MOVX    A,@DPTR
        SETB    0xE0 /* A   */.0
          CFI EndBlock cfiBlock77
        REQUIRE ??Subroutine31_0
        ; // Fall through to label ??Subroutine31_0

        RSEG BANKED_CODE:CODE:NOROOT(0)
??Subroutine31_0:
          CFI Block cfiBlock78 Using cfiCommon0
          CFI NoFunction
          CFI CFA_SP SP+-5
          CFI DPL0 Frame(CFA_SP, 4)
          CFI DPH0 Frame(CFA_SP, 5)
        MOVX    @DPTR,A
          CFI EndBlock cfiBlock78
        REQUIRE ??Subroutine32_0
        ; // Fall through to label ??Subroutine32_0

        RSEG BANKED_CODE:CODE:NOROOT(0)
??Subroutine32_0:
          CFI Block cfiBlock79 Using cfiCommon0
          CFI NoFunction
          CFI CFA_SP SP+-5
          CFI DPL0 Frame(CFA_SP, 4)
          CFI DPH0 Frame(CFA_SP, 5)
        POP     DPH
          CFI CFA_SP SP+-4
          CFI DPH0 SameValue
        POP     DPL
          CFI CFA_SP SP+-3
          CFI DPL0 SameValue
        LJMP    ?BRET
          CFI EndBlock cfiBlock79
//  188 
//  189 
//  190 
//  191 
//  192 /** \brief	Locates a configuration descriptor
//  193 *
//  194 * The search will either look for a descriptor with a specific
//  195 * \ref USB_CONFIGURATION_DESCRIPTOR.bConfigurationValue, or simply take the n'th descriptor (by "index")
//  196 *
//  197 * \note It is not necessary to call \ref usbdpInit() before this function.
//  198 *
//  199 * \param[in]       cfgValue
//  200 *     The configuration value to search for (\ref USB_CONFIGURATION_DESCRIPTOR.bConfigurationValue), or
//  201 *     0 to find descriptor by index
//  202 * \param[in]       cfgIndex
//  203 *     A zero-based index for the configuration descriptor to find.
//  204 *     This value is ignored unless \c cfgValue is 0.
//  205 *
//  206 * \return
//  207 *     A pointer to the \ref USB_DEVICE_DESCRIPTOR, or \c NULL if it was not found.
//  208 */

        RSEG BANKED_CODE:CODE:NOROOT(0)
//  209 USB_CONFIGURATION_DESCRIPTOR __code* usbdpGetConfigurationDesc(uint8 cfgValue, uint8 cfgIndex)
usbdpGetConfigurationDesc:
          CFI Block cfiBlock80 Using cfiCommon0
          CFI Function usbdpGetConfigurationDesc
        CODE
//  210 {
        FUNCALL usbdpGetConfigurationDesc, usbdpFindNext
        LOCFRAME ISTACK, 0, STACK
        LOCFRAME PSTACK, 0, STACK
        LOCFRAME XSTACK, 10, STACK
        LOCFRAME IOVERLAY, 0, STATIC
        LOCFRAME DOVERLAY, 0, STATIC
        ARGFRAME ISTACK, 0, STACK
        ARGFRAME PSTACK, 0, STACK
        ARGFRAME XSTACK, 10, STACK
        ARGFRAME IOVERLAY, 0, STATIC
        ARGFRAME DOVERLAY, 0, STATIC
        MOV     A,#-0xa
        LCALL   ?BANKED_ENTER_XDATA
          CFI DPH0 load(1, XDATA, add(CFA_XSP16, literal(-1)))
          CFI DPL0 load(1, XDATA, add(CFA_XSP16, literal(-2)))
          CFI ?BRET_EXT load(1, XDATA, add(CFA_XSP16, literal(-3)))
          CFI ?RET_HIGH load(1, XDATA, add(CFA_XSP16, literal(-4)))
          CFI ?RET_LOW load(1, XDATA, add(CFA_XSP16, literal(-5)))
          CFI R7 load(1, XDATA, add(CFA_XSP16, literal(-6)))
          CFI V1 load(1, XDATA, add(CFA_XSP16, literal(-7)))
          CFI V0 load(1, XDATA, add(CFA_XSP16, literal(-8)))
          CFI VB load(1, XDATA, add(CFA_XSP16, literal(-9)))
          CFI R6 load(1, XDATA, add(CFA_XSP16, literal(-10)))
          CFI CFA_SP SP+0
          CFI CFA_XSP16 add(XSP16, 10)
        ; Saved register size: 10
        ; Auto size: 0
        MOV     A,R1
        MOV     R6,A
        MOV     A,R2
        MOV     R7,A
//  211    USB_CONFIGURATION_DESCRIPTOR __code *pConfigurationDesc;
//  212    usbdpInit();
        LCALL   ?Subroutine10 & 0xFFFF
//  213 
//  214    // As long as there are more configuration descriptors...
//  215    while (pConfigurationDesc = usbdpFindNext(DESC_TYPE_CONFIG, 0)) {
??CrossCallReturnLabel_10:
        ; Setup parameters for call to function usbdpFindNext
        MOV     R2,#0x0
        MOV     R1,#0x2
        LCALL   ??usbdpFindNext?relay
        MOV     A,R2
        ORL     A,R3
        JZ      ??usbdpGetConfigurationDesc_0
//  216 
//  217       // Search by value?
//  218       if (cfgValue) {
        MOV     A,R6
        JZ      ??usbdpGetConfigurationDesc_1
//  219          if (cfgValue == pConfigurationDesc->bConfigurationValue) break;
        MOV     DPL,R2
        MOV     DPH,R3
        INC     DPTR
        INC     DPTR
        INC     DPTR
        INC     DPTR
        INC     DPTR
        CLR     A
        MOVC    A,@A+DPTR
        XRL     A,R6
        JNZ     ??CrossCallReturnLabel_10
        SJMP    ??usbdpGetConfigurationDesc_0
//  220 
//  221       // Search by index? (search cfgIndex+1 times)
//  222       } else if (!cfgIndex--) {
??usbdpGetConfigurationDesc_1:
        MOV     A,R7
        MOV     R0,A
        MOV     A,#-0x1
        ADD     A,R0
        DEC     R7
        INC     A
        JNZ     ??CrossCallReturnLabel_10
//  223          break;
//  224       }
//  225    }
//  226 
//  227    return pConfigurationDesc;
??usbdpGetConfigurationDesc_0:
        LJMP    ??Subroutine29_0 & 0xFFFF
          CFI EndBlock cfiBlock80
//  228 } // usbdpGetConfigurationDesc

        RSEG BANKED_CODE:CODE:NOROOT(0)
?Subroutine10:
          CFI Block cfiCond81 Using cfiCommon0
          CFI Function usbdpGetDeviceDesc
          CFI Conditional ??CrossCallReturnLabel_9
          CFI DPL0 Frame(CFA_SP, 4)
          CFI DPH0 Frame(CFA_SP, 5)
          CFI CFA_SP SP+-5
          CFI Block cfiCond82 Using cfiCommon0
          CFI (cfiCond82) Function usbdpGetConfigurationDesc
          CFI (cfiCond82) Conditional ??CrossCallReturnLabel_10
          CFI (cfiCond82) R6 load(1, XDATA, add(CFA_XSP16, literal(-10)))
          CFI (cfiCond82) VB load(1, XDATA, add(CFA_XSP16, literal(-9)))
          CFI (cfiCond82) V0 load(1, XDATA, add(CFA_XSP16, literal(-8)))
          CFI (cfiCond82) V1 load(1, XDATA, add(CFA_XSP16, literal(-7)))
          CFI (cfiCond82) R7 load(1, XDATA, add(CFA_XSP16, literal(-6)))
          CFI (cfiCond82) ?RET_LOW load(1, XDATA, add(CFA_XSP16, literal(-5)))
          CFI (cfiCond82) ?RET_HIGH load(1, XDATA, add(CFA_XSP16, literal(-4)))
          CFI (cfiCond82) ?BRET_EXT load(1, XDATA, add(CFA_XSP16, literal(-3)))
          CFI (cfiCond82) DPL0 load(1, XDATA, add(CFA_XSP16, literal(-2)))
          CFI (cfiCond82) DPH0 load(1, XDATA, add(CFA_XSP16, literal(-1)))
          CFI (cfiCond82) CFA_SP SP+0
          CFI (cfiCond82) CFA_XSP16 add(XSP16, 10)
          CFI Block cfiPicker83 Using cfiCommon1
          CFI (cfiPicker83) NoFunction
          CFI (cfiPicker83) Picker
        MOV     DPTR,#usbDescriptorMarker
        LCALL   ?Subroutine26 & 0xFFFF
??CrossCallReturnLabel_72:
        MOV     DPTR,#??usbdpData
        MOV     A,R0
        MOVX    @DPTR,A
        INC     DPTR
        MOV     A,R1
        MOVX    @DPTR,A
        RET
          CFI EndBlock cfiCond81
          CFI EndBlock cfiCond82
          CFI EndBlock cfiPicker83
//  229 
//  230 
//  231 
//  232 
//  233 /** \brief	Locates an interface descriptor
//  234 *
//  235 * The function will first go to the configuration descriptor that matches the supplied configuration
//  236 * value, and then locate the interface descriptor that matches the given interface number and alternate
//  237 * setting.
//  238 *
//  239 * \note It is not necessary to call \ref usbdpInit() before this function.
//  240 *
//  241 * \param[in]       cfgValue
//  242 *     The configuration value (\ref USB_CONFIGURATION_DESCRIPTOR.bConfigurationValue)
//  243 * \param[in]       intNumber
//  244 *     The interface number (\ref USB_INTERFACE_DESCRIPTOR.bInterfaceNumber)
//  245 * \param[in]       altSetting
//  246 *     The alternate setting (\ref USB_INTERFACE_DESCRIPTOR.bAlternateSetting)
//  247 *
//  248 * \return
//  249 *     A pointer to the \ref USB_INTERFACE_DESCRIPTOR, or \c NULL if it was not found.
//  250 */

        RSEG BANKED_CODE:CODE:NOROOT(0)
//  251 USB_INTERFACE_DESCRIPTOR __code* usbdpGetInterfaceDesc(uint8 cfgValue, uint8 intNumber, uint8 altSetting)
usbdpGetInterfaceDesc:
          CFI Block cfiBlock84 Using cfiCommon0
          CFI Function usbdpGetInterfaceDesc
        CODE
//  252 {
        FUNCALL usbdpGetInterfaceDesc, usbdpGetConfigurationDesc
        LOCFRAME ISTACK, 0, STACK
        LOCFRAME PSTACK, 0, STACK
        LOCFRAME XSTACK, 12, STACK
        LOCFRAME IOVERLAY, 0, STATIC
        LOCFRAME DOVERLAY, 0, STATIC
        ARGFRAME ISTACK, 0, STACK
        ARGFRAME PSTACK, 0, STACK
        ARGFRAME XSTACK, 12, STACK
        ARGFRAME IOVERLAY, 0, STATIC
        ARGFRAME DOVERLAY, 0, STATIC
        FUNCALL usbdpGetInterfaceDesc, usbdpFindNext
        LOCFRAME ISTACK, 0, STACK
        LOCFRAME PSTACK, 0, STACK
        LOCFRAME XSTACK, 12, STACK
        LOCFRAME IOVERLAY, 0, STATIC
        LOCFRAME DOVERLAY, 0, STATIC
        ARGFRAME ISTACK, 0, STACK
        ARGFRAME PSTACK, 0, STACK
        ARGFRAME XSTACK, 12, STACK
        ARGFRAME IOVERLAY, 0, STATIC
        ARGFRAME DOVERLAY, 0, STATIC
        MOV     A,#-0xc
        LCALL   ?BANKED_ENTER_XDATA
          CFI DPH0 load(1, XDATA, add(CFA_XSP16, literal(-1)))
          CFI DPL0 load(1, XDATA, add(CFA_XSP16, literal(-2)))
          CFI ?BRET_EXT load(1, XDATA, add(CFA_XSP16, literal(-3)))
          CFI ?RET_HIGH load(1, XDATA, add(CFA_XSP16, literal(-4)))
          CFI ?RET_LOW load(1, XDATA, add(CFA_XSP16, literal(-5)))
          CFI R7 load(1, XDATA, add(CFA_XSP16, literal(-6)))
          CFI V3 load(1, XDATA, add(CFA_XSP16, literal(-7)))
          CFI V2 load(1, XDATA, add(CFA_XSP16, literal(-8)))
          CFI V1 load(1, XDATA, add(CFA_XSP16, literal(-9)))
          CFI V0 load(1, XDATA, add(CFA_XSP16, literal(-10)))
          CFI VB load(1, XDATA, add(CFA_XSP16, literal(-11)))
          CFI R6 load(1, XDATA, add(CFA_XSP16, literal(-12)))
          CFI CFA_SP SP+0
          CFI CFA_XSP16 add(XSP16, 12)
        ; Saved register size: 12
        ; Auto size: 0
        MOV     A,R2
        MOV     R7,A
        MOV     ?V0 + 0,R3
//  253    USB_INTERFACE_DESCRIPTOR __code *pInterfaceDesc;
//  254 
//  255    // First get to the correct configuration
//  256    usbdpGetConfigurationDesc(cfgValue, 0);
        ; Setup parameters for call to function usbdpGetConfigurationDesc
        MOV     R2,#0x0
        LCALL   ??usbdpGetConfigurationDesc?relay
//  257 
//  258    // Then find a match on the interface
//  259    while (pInterfaceDesc = usbdpFindNext(DESC_TYPE_INTERFACE, DESC_TYPE_CONFIG)) {
??usbdpGetInterfaceDesc_0:
        ; Setup parameters for call to function usbdpFindNext
        MOV     R2,#0x2
        MOV     R1,#0x4
        LCALL   ??usbdpFindNext?relay
        MOV     A,R2
        ORL     A,R3
        JZ      ??usbdpGetInterfaceDesc_1
//  260       if ((pInterfaceDesc->bInterfaceNumber == intNumber) && (pInterfaceDesc->bAlternateSetting == altSetting)) {
        MOV     DPL,R2
        MOV     DPH,R3
        INC     DPTR
        INC     DPTR
        CLR     A
        MOVC    A,@A+DPTR
        XRL     A,R7
        JNZ     ??usbdpGetInterfaceDesc_0
        MOV     DPL,R2
        MOV     DPH,R3
        INC     DPTR
        INC     DPTR
        INC     DPTR
        CLR     A
        MOVC    A,@A+DPTR
        XRL     A,?V0 + 0
        JNZ     ??usbdpGetInterfaceDesc_0
          CFI EndBlock cfiBlock84
//  261          break;
//  262       }
//  263    }
//  264 
//  265    return pInterfaceDesc;
??usbdpGetInterfaceDesc_1:
        REQUIRE ?Subroutine2
        ; // Fall through to label ?Subroutine2
//  266 } // usbdpGetInterfaceDesc

        RSEG BANKED_CODE:CODE:NOROOT(0)
?Subroutine2:
          CFI Block cfiBlock85 Using cfiCommon0
          CFI NoFunction
          CFI CFA_SP SP+0
          CFI CFA_XSP16 add(XSP16, 12)
          CFI VB load(1, XDATA, add(CFA_XSP16, literal(-11)))
          CFI DPL0 load(1, XDATA, add(CFA_XSP16, literal(-2)))
          CFI DPH0 load(1, XDATA, add(CFA_XSP16, literal(-1)))
          CFI R6 load(1, XDATA, add(CFA_XSP16, literal(-12)))
          CFI R7 load(1, XDATA, add(CFA_XSP16, literal(-6)))
          CFI V0 load(1, XDATA, add(CFA_XSP16, literal(-10)))
          CFI V1 load(1, XDATA, add(CFA_XSP16, literal(-9)))
          CFI V2 load(1, XDATA, add(CFA_XSP16, literal(-8)))
          CFI V3 load(1, XDATA, add(CFA_XSP16, literal(-7)))
          CFI ?BRET_EXT load(1, XDATA, add(CFA_XSP16, literal(-3)))
          CFI ?RET_HIGH load(1, XDATA, add(CFA_XSP16, literal(-4)))
          CFI ?RET_LOW load(1, XDATA, add(CFA_XSP16, literal(-5)))
        MOV     R7,#0x4
        LJMP    ?BANKED_LEAVE_XDATA
          CFI EndBlock cfiBlock85
//  267 
//  268 
//  269 
//  270 
//  271 /** \brief	Locates a string descriptor
//  272 *
//  273 * \note It is not necessary to call \ref usbdpInit() before this function.
//  274 *
//  275 * \param[in]       strIndex
//  276 *     A zero-based index that matches the "iXxxxxxxxxx" string indexes in the other descriptors
//  277 *
//  278 * \return
//  279 *     A pointer to the \ref USB_INTERFACE_DESCRIPTOR, or \c NULL if it was not found.
//  280 */

        RSEG BANKED_CODE:CODE:NOROOT(0)
//  281 USB_STRING_DESCRIPTOR* usbdpGetStringDesc(uint8 strIndex)
usbdpGetStringDesc:
          CFI Block cfiBlock86 Using cfiCommon0
          CFI Function usbdpGetStringDesc
        CODE
//  282 {
        MOV     A,#-0xa
        LCALL   ?BANKED_ENTER_XDATA
          CFI DPH0 load(1, XDATA, add(CFA_XSP16, literal(-1)))
          CFI DPL0 load(1, XDATA, add(CFA_XSP16, literal(-2)))
          CFI ?BRET_EXT load(1, XDATA, add(CFA_XSP16, literal(-3)))
          CFI ?RET_HIGH load(1, XDATA, add(CFA_XSP16, literal(-4)))
          CFI ?RET_LOW load(1, XDATA, add(CFA_XSP16, literal(-5)))
          CFI R7 load(1, XDATA, add(CFA_XSP16, literal(-6)))
          CFI V1 load(1, XDATA, add(CFA_XSP16, literal(-7)))
          CFI V0 load(1, XDATA, add(CFA_XSP16, literal(-8)))
          CFI VB load(1, XDATA, add(CFA_XSP16, literal(-9)))
          CFI R6 load(1, XDATA, add(CFA_XSP16, literal(-10)))
          CFI CFA_SP SP+0
          CFI CFA_XSP16 add(XSP16, 10)
        ; Saved register size: 10
        ; Auto size: 8
        MOV     A,#-0x8
        LCALL   ?ALLOC_XSTACK8
          CFI CFA_XSP16 add(XSP16, 18)
        MOV     A,R1
//  283   USB_STRING_DESCRIPTOR *pStringDesc = NULL;
        MOV     R2,#0x0
        MOV     R3,#0x0
//  284 
//  285 #ifdef MS_EXT_C_ID
//  286   /* TODO: Find the Microsoft OS String Descriptor?
//  287   usbdpInit();
//  288 
//  289   if (strIndex == 0xEE){
//  290     // Find the Microsoft OS String Descriptor
//  291     do{
//  292       pStringDesc = usbdpFindNext(DESC_TYPE_STRING, 0);
//  293     }while (pStringDesc != NULL && pStringDesc->bLength != 18);
//  294   } else
//  295   */
//  296 #endif
//  297   {
//  298     switch (strIndex)
        JZ      ??usbdpGetStringDesc_0
        DEC     A
        JZ      ??usbdpGetStringDesc_1
        DEC     A
        JZ      ??usbdpGetStringDesc_2
        DEC     A
        JZ      ??usbdpGetStringDesc_3
        LJMP    ??usbdpGetStringDesc_4 & 0xFFFF
//  299     {
//  300     case 0:
//  301       pStringDesc = (USB_STRING_DESCRIPTOR *)languageId;
??usbdpGetStringDesc_0:
        MOV     R2,#??languageId & 0xff
        MOV     R3,#(??languageId >> 8) & 0xff
//  302       break;
        SJMP    ??usbdpGetStringDesc_4
//  303 
//  304     case 1:
//  305       pStringDesc = (USB_STRING_DESCRIPTOR *)manufacturer;
??usbdpGetStringDesc_1:
        MOV     R2,#??manufacturer & 0xff
        MOV     R3,#(??manufacturer >> 8) & 0xff
//  306       break;
        SJMP    ??usbdpGetStringDesc_4
//  307 
//  308     case 2:
//  309       pStringDesc = (USB_STRING_DESCRIPTOR *)product;
??usbdpGetStringDesc_2:
        MOV     R2,#??product & 0xff
        MOV     R3,#(??product >> 8) & 0xff
//  310       break;
        SJMP    ??usbdpGetStringDesc_4
//  311 
//  312     case 3:
//  313       if (serialNumber[0] == 0)
??usbdpGetStringDesc_3:
        MOV     DPTR,#??serialNumber
        MOVX    A,@DPTR
        JNZ     ??usbdpGetStringDesc_5
//  314       {
//  315 #if (defined HAL_SB_BOOT_CODE || defined CC253X_MACNP || defined CC2531DK)
//  316         #include <string.h>
//  317         uint8 aExtendedAddress[HAL_FLASH_IEEE_SIZE] = {0xFF, 0xFF, 0xFF, 0xFF, 0xFF, 0xFF, 0xFF, 0xFF};
        MOV     DPL,?XSP + 0
        MOV     DPH,?XSP + 1
        MOV     R4,DPL
        MOV     R5,DPH
        MOV     DPH,#(`?<Constant {255, 255, 255, 255, 255, 255, 255,` >> 8) & 0xff
        MOV     DPL,#`?<Constant {255, 255, 255, 255, 255, 255, 255,` & 0xff
        MOV     A,#0x8
        LCALL   ?MOVE_LONG8_XDATA_XDATA
//  318         /*
//  319         uint8 nullAddr[HAL_FLASH_IEEE_SIZE] = {0xFF, 0xFF, 0xFF, 0xFF, 0xFF, 0xFF, 0xFF, 0xFF};
//  320         uint8 aExtendedAddress[HAL_FLASH_IEEE_SIZE];
//  321 
//  322         // Attempt to read the extended address from the location on the lock bits page
//  323         // where the programming tools know to reserve it.
//  324         HalFlashRead(HAL_FLASH_IEEE_PAGE, HAL_FLASH_IEEE_OSET,
//  325                         aExtendedAddress, HAL_FLASH_IEEE_SIZE);
//  326 
//  327         if (!memcmp(aExtendedAddress, nullAddr, HAL_FLASH_IEEE_SIZE))
//  328         {
//  329           // Attempt to read the extended address from the designated location in the Info Page.
//  330           memcpy(aExtendedAddress, (uint8 *)(P_INFOPAGE+HAL_INFOP_IEEE_OSET), HAL_FLASH_IEEE_SIZE);
//  331         }
//  332          */
//  333 #endif
//  334         // Load the 16 nibbles of the hex representation of the IEEE address into the serialNumber
//  335         // string in big-endian (i.e. human-readable) order.
//  336         for (uint8 idx = sizeof(serialNumber)-2, cnt=0; cnt < HAL_FLASH_IEEE_SIZE; cnt++, idx -= 4)
        MOV     R4,#0x28
        MOV     R5,A
//  337         {
//  338           serialNumber[idx]   = hexDigit[aExtendedAddress[cnt] & 0x0F];
??usbdpGetStringDesc_6:
        MOV     ?V0 + 0,R5
        MOV     DPL,?XSP + 0
        MOV     DPH,?XSP + 1
        MOV     A,DPL
        ADD     A,?V0 + 0
        MOV     DPL,A
        MOV     A,DPH
        LCALL   ??Subroutine33_0 & 0xFFFF
??CrossCallReturnLabel_48:
        MOV     R7,A
        MOV     ?V0 + 0,R4
        MOV     A,#??serialNumber & 0xff
        ADD     A,?V0 + 0
        MOV     R0,A
        MOV     A,#(??serialNumber >> 8) & 0xff
        ADDC    A,#0x0
        MOV     R1,A
        MOV     A,R7
        LCALL   ?Subroutine21 & 0xFFFF
??CrossCallReturnLabel_50:
        MOV     DPL,R0
        MOV     DPH,R1
        MOVX    @DPTR,A
//  339           serialNumber[idx-2] = hexDigit[aExtendedAddress[cnt] / 16];
        MOV     A,R7
        SWAP    A
        LCALL   ?Subroutine21 & 0xFFFF
//  340         }
??CrossCallReturnLabel_51:
        PUSH    A
          CFI CFA_SP SP+-1
        MOV     A,R0
        ADD     A,#-0x2
        MOV     DPL,A
        MOV     A,R1
        ADDC    A,#-0x1
        MOV     DPH,A
        POP     A
          CFI CFA_SP SP+0
        MOVX    @DPTR,A
        INC     R5
        MOV     A,#-0x4
        ADD     A,R4
        MOV     R4,A
        MOV     A,R5
        CLR     C
        SUBB    A,#0x8
        JC      ??usbdpGetStringDesc_6
//  341         serialNumber[0] = sizeof(serialNumber);
        MOV     DPTR,#??serialNumber
        MOV     A,#0x2a
        MOVX    @DPTR,A
//  342       }
//  343       pStringDesc = (USB_STRING_DESCRIPTOR *)serialNumber;
??usbdpGetStringDesc_5:
        MOV     R2,#??serialNumber & 0xff
        MOV     R3,#(??serialNumber >> 8) & 0xff
//  344       break;
//  345 
//  346     default:
//  347       break;
//  348     }
//  349   }
//  350 
//  351   return pStringDesc;
??usbdpGetStringDesc_4:
        MOV     A,#0x8
        LJMP    ?Subroutine4 & 0xFFFF
          CFI EndBlock cfiBlock86
//  352 }

        RSEG BANKED_CODE:CODE:NOROOT(0)
?Subroutine21:
          CFI Block cfiCond87 Using cfiCommon0
          CFI Function usbdpGetStringDesc
          CFI Conditional ??CrossCallReturnLabel_50
          CFI R6 load(1, XDATA, add(CFA_XSP16, literal(-10)))
          CFI VB load(1, XDATA, add(CFA_XSP16, literal(-9)))
          CFI V0 load(1, XDATA, add(CFA_XSP16, literal(-8)))
          CFI V1 load(1, XDATA, add(CFA_XSP16, literal(-7)))
          CFI R7 load(1, XDATA, add(CFA_XSP16, literal(-6)))
          CFI ?RET_LOW load(1, XDATA, add(CFA_XSP16, literal(-5)))
          CFI ?RET_HIGH load(1, XDATA, add(CFA_XSP16, literal(-4)))
          CFI ?BRET_EXT load(1, XDATA, add(CFA_XSP16, literal(-3)))
          CFI DPL0 load(1, XDATA, add(CFA_XSP16, literal(-2)))
          CFI DPH0 load(1, XDATA, add(CFA_XSP16, literal(-1)))
          CFI CFA_SP SP+0
          CFI CFA_XSP16 add(XSP16, 18)
          CFI Block cfiCond88 Using cfiCommon0
          CFI (cfiCond88) Function usbdpGetStringDesc
          CFI (cfiCond88) Conditional ??CrossCallReturnLabel_51
          CFI (cfiCond88) R6 load(1, XDATA, add(CFA_XSP16, literal(-10)))
          CFI (cfiCond88) VB load(1, XDATA, add(CFA_XSP16, literal(-9)))
          CFI (cfiCond88) V0 load(1, XDATA, add(CFA_XSP16, literal(-8)))
          CFI (cfiCond88) V1 load(1, XDATA, add(CFA_XSP16, literal(-7)))
          CFI (cfiCond88) R7 load(1, XDATA, add(CFA_XSP16, literal(-6)))
          CFI (cfiCond88) ?RET_LOW load(1, XDATA, add(CFA_XSP16, literal(-5)))
          CFI (cfiCond88) ?RET_HIGH load(1, XDATA, add(CFA_XSP16, literal(-4)))
          CFI (cfiCond88) ?BRET_EXT load(1, XDATA, add(CFA_XSP16, literal(-3)))
          CFI (cfiCond88) DPL0 load(1, XDATA, add(CFA_XSP16, literal(-2)))
          CFI (cfiCond88) DPH0 load(1, XDATA, add(CFA_XSP16, literal(-1)))
          CFI (cfiCond88) CFA_SP SP+0
          CFI (cfiCond88) CFA_XSP16 add(XSP16, 18)
          CFI Block cfiPicker89 Using cfiCommon1
          CFI (cfiPicker89) NoFunction
          CFI (cfiPicker89) Picker
        ANL     A,#0xf
        MOV     R2,A
        MOV     A,#hexDigit & 0xff
        ADD     A,R2
        MOV     DPL,A
        MOV     A,#(hexDigit >> 8) & 0xff
          CFI EndBlock cfiCond87
          CFI EndBlock cfiCond88
          CFI EndBlock cfiPicker89
        REQUIRE ??Subroutine33_0
        ; // Fall through to label ??Subroutine33_0

        RSEG BANKED_CODE:CODE:NOROOT(0)
??Subroutine33_0:
          CFI Block cfiCond90 Using cfiCommon0
          CFI Function ublMassErase
          CFI Conditional ??CrossCallReturnLabel_47
          CFI DPL0 Frame(CFA_SP, 4)
          CFI DPH0 Frame(CFA_SP, 5)
          CFI CFA_SP SP+-5
          CFI Block cfiCond91 Using cfiCommon0
          CFI (cfiCond91) Function usbdpGetStringDesc
          CFI (cfiCond91) Conditional ??CrossCallReturnLabel_48
          CFI (cfiCond91) R6 load(1, XDATA, add(CFA_XSP16, literal(-10)))
          CFI (cfiCond91) VB load(1, XDATA, add(CFA_XSP16, literal(-9)))
          CFI (cfiCond91) V0 load(1, XDATA, add(CFA_XSP16, literal(-8)))
          CFI (cfiCond91) V1 load(1, XDATA, add(CFA_XSP16, literal(-7)))
          CFI (cfiCond91) R7 load(1, XDATA, add(CFA_XSP16, literal(-6)))
          CFI (cfiCond91) ?RET_LOW load(1, XDATA, add(CFA_XSP16, literal(-5)))
          CFI (cfiCond91) ?RET_HIGH load(1, XDATA, add(CFA_XSP16, literal(-4)))
          CFI (cfiCond91) ?BRET_EXT load(1, XDATA, add(CFA_XSP16, literal(-3)))
          CFI (cfiCond91) DPL0 load(1, XDATA, add(CFA_XSP16, literal(-2)))
          CFI (cfiCond91) DPH0 load(1, XDATA, add(CFA_XSP16, literal(-1)))
          CFI (cfiCond91) CFA_SP SP+0
          CFI (cfiCond91) CFA_XSP16 add(XSP16, 18)
          CFI Block cfiCond92 Using cfiCommon0
          CFI (cfiCond92) Function usbsrGetStatus
          CFI (cfiCond92) Conditional ??CrossCallReturnLabel_49
          CFI (cfiCond92) R6 load(1, XDATA, add(CFA_XSP16, literal(-10)))
          CFI (cfiCond92) VB load(1, XDATA, add(CFA_XSP16, literal(-9)))
          CFI (cfiCond92) V0 load(1, XDATA, add(CFA_XSP16, literal(-8)))
          CFI (cfiCond92) V1 load(1, XDATA, add(CFA_XSP16, literal(-7)))
          CFI (cfiCond92) R7 load(1, XDATA, add(CFA_XSP16, literal(-6)))
          CFI (cfiCond92) ?RET_LOW load(1, XDATA, add(CFA_XSP16, literal(-5)))
          CFI (cfiCond92) ?RET_HIGH load(1, XDATA, add(CFA_XSP16, literal(-4)))
          CFI (cfiCond92) ?BRET_EXT load(1, XDATA, add(CFA_XSP16, literal(-3)))
          CFI (cfiCond92) DPL0 load(1, XDATA, add(CFA_XSP16, literal(-2)))
          CFI (cfiCond92) DPH0 load(1, XDATA, add(CFA_XSP16, literal(-1)))
          CFI (cfiCond92) CFA_SP SP+0
          CFI (cfiCond92) CFA_XSP16 add(XSP16, 10)
          CFI Block cfiCond93 Using cfiCommon0
          CFI (cfiCond93) Function usbdpGetStringDesc
          CFI (cfiCond93) Conditional ??CrossCallReturnLabel_50
          CFI (cfiCond93) R6 load(1, XDATA, add(CFA_XSP16, literal(-10)))
          CFI (cfiCond93) VB load(1, XDATA, add(CFA_XSP16, literal(-9)))
          CFI (cfiCond93) V0 load(1, XDATA, add(CFA_XSP16, literal(-8)))
          CFI (cfiCond93) V1 load(1, XDATA, add(CFA_XSP16, literal(-7)))
          CFI (cfiCond93) R7 load(1, XDATA, add(CFA_XSP16, literal(-6)))
          CFI (cfiCond93) ?RET_LOW load(1, XDATA, add(CFA_XSP16, literal(-5)))
          CFI (cfiCond93) ?RET_HIGH load(1, XDATA, add(CFA_XSP16, literal(-4)))
          CFI (cfiCond93) ?BRET_EXT load(1, XDATA, add(CFA_XSP16, literal(-3)))
          CFI (cfiCond93) DPL0 load(1, XDATA, add(CFA_XSP16, literal(-2)))
          CFI (cfiCond93) DPH0 load(1, XDATA, add(CFA_XSP16, literal(-1)))
          CFI (cfiCond93) CFA_SP SP+0
          CFI (cfiCond93) CFA_XSP16 add(XSP16, 18)
          CFI Block cfiCond94 Using cfiCommon0
          CFI (cfiCond94) Function usbdpGetStringDesc
          CFI (cfiCond94) Conditional ??CrossCallReturnLabel_51
          CFI (cfiCond94) R6 load(1, XDATA, add(CFA_XSP16, literal(-10)))
          CFI (cfiCond94) VB load(1, XDATA, add(CFA_XSP16, literal(-9)))
          CFI (cfiCond94) V0 load(1, XDATA, add(CFA_XSP16, literal(-8)))
          CFI (cfiCond94) V1 load(1, XDATA, add(CFA_XSP16, literal(-7)))
          CFI (cfiCond94) R7 load(1, XDATA, add(CFA_XSP16, literal(-6)))
          CFI (cfiCond94) ?RET_LOW load(1, XDATA, add(CFA_XSP16, literal(-5)))
          CFI (cfiCond94) ?RET_HIGH load(1, XDATA, add(CFA_XSP16, literal(-4)))
          CFI (cfiCond94) ?BRET_EXT load(1, XDATA, add(CFA_XSP16, literal(-3)))
          CFI (cfiCond94) DPL0 load(1, XDATA, add(CFA_XSP16, literal(-2)))
          CFI (cfiCond94) DPH0 load(1, XDATA, add(CFA_XSP16, literal(-1)))
          CFI (cfiCond94) CFA_SP SP+0
          CFI (cfiCond94) CFA_XSP16 add(XSP16, 18)
          CFI Block cfiPicker95 Using cfiCommon1
          CFI (cfiPicker95) NoFunction
          CFI (cfiPicker95) Picker
        LCALL   ?Subroutine28 & 0xFFFF
??CrossCallReturnLabel_57:
        MOVX    A,@DPTR
        RET
          CFI EndBlock cfiCond90
          CFI EndBlock cfiCond91
          CFI EndBlock cfiCond92
          CFI EndBlock cfiCond93
          CFI EndBlock cfiCond94
          CFI EndBlock cfiPicker95
//  353 /// @}
//  354 
//  355 /*
//  356 +------------------------------------------------------------------------------
//  357 |  Copyright 2004-2011 Texas Instruments Incorporated. All rights reserved.
//  358 |
//  359 |  IMPORTANT: Your use of this Software is limited to those specific rights
//  360 |  granted under the terms of a software license agreement between the user who
//  361 |  downloaded the software, his/her employer (which must be your employer) and
//  362 |  Texas Instruments Incorporated (the "License"). You may not use this Software
//  363 |  unless you agree to abide by the terms of the License. The License limits
//  364 |  your use, and you acknowledge, that the Software may not be modified, copied
//  365 |  or distributed unless embedded on a Texas Instruments microcontroller or used
//  366 |  solely and exclusively in conjunction with a Texas Instruments radio
//  367 |  frequency transceiver, which is integrated into your product. Other than for
//  368 |  the foregoing purpose, you may not use, reproduce, copy, prepare derivative
//  369 |  works of, modify, distribute, perform, display or sell this Software and/or
//  370 |  its documentation for any purpose.
//  371 |
//  372 |  YOU FURTHER ACKNOWLEDGE AND AGREE THAT THE SOFTWARE AND DOCUMENTATION ARE
//  373 |  PROVIDED “AS IS” WITHOUT WARRANTY OF ANY KIND, EITHER EXPRESS OR IMPLIED,
//  374 |  INCLUDING WITHOUT LIMITATION, ANY WARRANTY OF MERCHANTABILITY, TITLE,
//  375 |  NON-INFRINGEMENT AND FITNESS FOR A PARTICULAR PURPOSE. IN NO EVENT SHALL
//  376 |  TEXAS INSTRUMENTS OR ITS LICENSORS BE LIABLE OR OBLIGATED UNDER CONTRACT,
//  377 |  NEGLIGENCE, STRICT LIABILITY, CONTRIBUTION, BREACH OF WARRANTY, OR OTHER
//  378 |  LEGAL EQUITABLE THEORY ANY DIRECT OR INDIRECT DAMAGES OR EXPENSES INCLUDING
//  379 |  BUT NOT LIMITED TO ANY INCIDENTAL, SPECIAL, INDIRECT, PUNITIVE OR
//  380 |  CONSEQUENTIAL DAMAGES, LOST PROFITS OR LOST DATA, COST OF PROCUREMENT OF
//  381 |  SUBSTITUTE GOODS, TECHNOLOGY, SERVICES, OR ANY CLAIMS BY THIRD PARTIES
//  382 |  (INCLUDING BUT NOT LIMITED TO ANY DEFENSE THEREOF), OR OTHER SIMILAR COSTS.
//  383 |
//  384 |  Should you have any questions regarding your right to use this Software,
//  385 |  contact Texas Instruments Incorporated at www.TI.com.
//  386 |
//  387 +------------------------------------------------------------------------------
//  388 */
// C:\Texas Instruments\BLE-CC254x-1.4.0\Projects\ble\util\UBL\soc_8051\usb_msd\hal\usb\library\usb_framework.c
//    1 /***********************************************************************************
//    2 
//    3     Filename:     usb_framework.c
//    4 
//    5     Description:  USB library common functionality.
//    6 
//    7 ***********************************************************************************/
//    8 
//    9 /// \addtogroup module_usb_framework
//   10 /// @{
//   11 #define USBFRAMEWORK_C ///< Modifies the behavior of "EXTERN" in usb_framework.h
//   12 #include "usb_firmware_library_headers.h"
//   13 #include "usb_board_cfg.h"
//   14 
//   15 // Function pointer used by usbfwSetupHandler()
//   16 static VFPTR __data ProcessFunc;
//   17 
//   18 /** \brief Initializes the USB framework
//   19  *
//   20  * This function should be called when the microcontroller is ready to accept USB traffic. It enables the
//   21  * USB peripheral unit and enables the pull-up resistor on the D+ line. Endpoint status, current
//   22  * configuration value, etc. are initialized and evenetually re-initialized in the
//   23  * \ref usbfwResetHandler() function.
//   24  */

        RSEG BANKED_CODE:CODE:NOROOT(0)
//   25 void usbfwInit(void)
usbfwInit:
          CFI Block cfiBlock96 Using cfiCommon0
          CFI Function usbfwInit
        CODE
//   26 {
        FUNCALL usbfwInit, usbdpGetConfigurationDesc
        LOCFRAME ISTACK, 2, STACK
        LOCFRAME PSTACK, 0, STACK
        LOCFRAME XSTACK, 0, STACK
        LOCFRAME IOVERLAY, 0, STATIC
        LOCFRAME DOVERLAY, 0, STATIC
        ARGFRAME ISTACK, 2, STACK
        ARGFRAME PSTACK, 0, STACK
        ARGFRAME XSTACK, 0, STACK
        ARGFRAME IOVERLAY, 0, STATIC
        ARGFRAME DOVERLAY, 0, STATIC
        PUSH    DPL
          CFI DPL0 Frame(CFA_SP, 4)
          CFI CFA_SP SP+-4
        PUSH    DPH
          CFI DPH0 Frame(CFA_SP, 5)
          CFI CFA_SP SP+-5
        ; Saved register size: 2
        ; Auto size: 0
//   27     // Set default values
//   28     usbfwData.selfPowered = (usbdpGetConfigurationDesc(1, 0)->bmAttributes & 0x40) ? TRUE : FALSE;
        ; Setup parameters for call to function usbdpGetConfigurationDesc
        MOV     R2,#0x0
        MOV     R1,#0x1
        LCALL   ??usbdpGetConfigurationDesc?relay
        MOV     DPL,R2
        MOV     DPH,R3
        INC     DPTR
        INC     DPTR
        INC     DPTR
        INC     DPTR
        INC     DPTR
        INC     DPTR
        INC     DPTR
        CLR     A
        MOVC    A,@A+DPTR
        MOV     C,0xE0 /* A   */.6
        MOV     DPTR,#usbfwData + 19
        JNC     ??usbfwInit_0
        MOV     A,#0x1
        SJMP    ??usbfwInit_1
??usbfwInit_0:
        CLR     A
??usbfwInit_1:
        MOVX    @DPTR,A
//   29     usbfwData.remoteWakeup = FALSE;
        MOV     DPTR,#usbfwData + 18
        CLR     A
        MOVX    @DPTR,A
//   30 
//   31     HAL_USB_ENABLE();
        MOV     DPTR,#0x620f
        MOV     A,#0x3
        MOVX    @DPTR,A
??usbfwInit_2:
        MOVX    A,@DPTR
        MOV     C,0xE0 /* A   */.7
        JNC     ??usbfwInit_2
//   32 
//   33     // Enable Resume Interrupt
//   34     HAL_USB_RESUME_INT_ENABLE();
//   35 
//   36 } // usbfwInit
        LJMP    ??Subroutine32_0 & 0xFFFF
          CFI EndBlock cfiBlock96
//   37 
//   38 
//   39 
//   40 
//   41 /** \brief Handles USB reset signalling
//   42  *
//   43  * This function should be called, either from the USB interrupt or the main loop, when the \c USBCIF.RST
//   44  * flag has been set. Keep in mind that all bits in \c USBCIF register are cleared when the register is
//   45  * read. The function puts the device into the default state (not yet addressed), and puts all endpoints
//   46  * (except EP0) into the \ref EP_HALT state
//   47  */

        RSEG BANKED_CODE:CODE:NOROOT(0)
//   48 void usbfwResetHandler(void)
usbfwResetHandler:
          CFI Block cfiBlock97 Using cfiCommon0
          CFI Function usbfwResetHandler
        CODE
//   49 {
        FUNCALL usbfwResetHandler, usbfwSetAllEpStatus
        LOCFRAME ISTACK, 2, STACK
        LOCFRAME PSTACK, 0, STACK
        LOCFRAME XSTACK, 0, STACK
        LOCFRAME IOVERLAY, 0, STATIC
        LOCFRAME DOVERLAY, 0, STATIC
        ARGFRAME ISTACK, 2, STACK
        ARGFRAME PSTACK, 0, STACK
        ARGFRAME XSTACK, 0, STACK
        ARGFRAME IOVERLAY, 0, STATIC
        ARGFRAME DOVERLAY, 0, STATIC
        PUSH    DPL
          CFI DPL0 Frame(CFA_SP, 4)
          CFI CFA_SP SP+-4
        PUSH    DPH
          CFI DPH0 Frame(CFA_SP, 5)
          CFI CFA_SP SP+-5
        ; Saved register size: 2
        ; Auto size: 0
//   50 
//   51    // Reset the USB state
//   52    usbfwData.usbState = DEV_DEFAULT;
        MOV     DPTR,#usbfwData
        MOV     A,#0x2
        MOVX    @DPTR,A
//   53    usbfwData.configurationValue = 0;
        INC     DPTR
        CLR     A
        MOVX    @DPTR,A
//   54 
//   55    // Reset all endpoints
//   56    usbfwData.ep0Status = EP_IDLE;
        MOV     DPTR,#usbfwData + 7
        MOVX    @DPTR,A
//   57    usbfwSetAllEpStatus(EP_HALT);
        ; Setup parameters for call to function usbfwSetAllEpStatus
        MOV     R1,#0x3
        LCALL   ??usbfwSetAllEpStatus?relay
//   58 
//   59    // Reset last function pointer
//   60    ProcessFunc = NULL;
        MOV     ??ProcessFunc+0x0,#0x0
        MOV     ??ProcessFunc+0x1,#0x0
//   61 
//   62 } // usbfwResetHandler
        LJMP    ??Subroutine32_0 & 0xFFFF
          CFI EndBlock cfiBlock97
//   63 
//   64 
//   65 
//   66 
//   67 /** \brief USB Setup Handler
//   68  *
//   69  * This function should be called either from the USB interrupt or the main loop when the \c USBIIF.EP0IF
//   70  * flag has been set. Keep in mind that all bits in \c USBIIF register are cleared when the register is
//   71  * read. A detailed description of the framework is found in the \ref section_setup_handler_usage
//   72  * section.
//   73  *
//   74  * \note The USB header data is always little-endian, so if a big-endian compiler is used (such as Keil
//   75  * C51), the 16-bit values in the \ref usbSetupHeader must be flipped before they are used.
//   76  */

        RSEG BANKED_CODE:CODE:NOROOT(0)
//   77 void usbfwSetupHandler(void)
usbfwSetupHandler:
          CFI Block cfiBlock98 Using cfiCommon0
          CFI Function usbfwSetupHandler
        CODE
//   78 {
        FUNCALL usbfwSetupHandler, usbfwReadFifo
        LOCFRAME ISTACK, 0, STACK
        LOCFRAME PSTACK, 0, STACK
        LOCFRAME XSTACK, 14, STACK
        LOCFRAME IOVERLAY, 0, STATIC
        LOCFRAME DOVERLAY, 0, STATIC
        ARGFRAME ISTACK, 0, STACK
        ARGFRAME PSTACK, 0, STACK
        ARGFRAME XSTACK, 14, STACK
        ARGFRAME IOVERLAY, 0, STATIC
        ARGFRAME DOVERLAY, 0, STATIC
        FUNCALL usbfwSetupHandler, usbfwReadFifo
        LOCFRAME ISTACK, 0, STACK
        LOCFRAME PSTACK, 0, STACK
        LOCFRAME XSTACK, 14, STACK
        LOCFRAME IOVERLAY, 0, STATIC
        LOCFRAME DOVERLAY, 0, STATIC
        ARGFRAME ISTACK, 0, STACK
        ARGFRAME PSTACK, 0, STACK
        ARGFRAME XSTACK, 14, STACK
        ARGFRAME IOVERLAY, 0, STATIC
        ARGFRAME DOVERLAY, 0, STATIC
        FUNCALL usbfwSetupHandler, usbsrSetAddress
        LOCFRAME ISTACK, 0, STACK
        LOCFRAME PSTACK, 0, STACK
        LOCFRAME XSTACK, 11, STACK
        LOCFRAME IOVERLAY, 0, STATIC
        LOCFRAME DOVERLAY, 0, STATIC
        ARGFRAME ISTACK, 0, STACK
        ARGFRAME PSTACK, 0, STACK
        ARGFRAME XSTACK, 11, STACK
        ARGFRAME IOVERLAY, 0, STATIC
        ARGFRAME DOVERLAY, 0, STATIC
        FUNCALL usbfwSetupHandler, usbsrSetFeature
        LOCFRAME ISTACK, 0, STACK
        LOCFRAME PSTACK, 0, STACK
        LOCFRAME XSTACK, 11, STACK
        LOCFRAME IOVERLAY, 0, STATIC
        LOCFRAME DOVERLAY, 0, STATIC
        ARGFRAME ISTACK, 0, STACK
        ARGFRAME PSTACK, 0, STACK
        ARGFRAME XSTACK, 11, STACK
        ARGFRAME IOVERLAY, 0, STATIC
        ARGFRAME DOVERLAY, 0, STATIC
        FUNCALL usbfwSetupHandler, usbsrClearFeature
        LOCFRAME ISTACK, 0, STACK
        LOCFRAME PSTACK, 0, STACK
        LOCFRAME XSTACK, 11, STACK
        LOCFRAME IOVERLAY, 0, STATIC
        LOCFRAME DOVERLAY, 0, STATIC
        ARGFRAME ISTACK, 0, STACK
        ARGFRAME PSTACK, 0, STACK
        ARGFRAME XSTACK, 11, STACK
        ARGFRAME IOVERLAY, 0, STATIC
        ARGFRAME DOVERLAY, 0, STATIC
        FUNCALL usbfwSetupHandler, usbsrSetConfiguration
        LOCFRAME ISTACK, 0, STACK
        LOCFRAME PSTACK, 0, STACK
        LOCFRAME XSTACK, 11, STACK
        LOCFRAME IOVERLAY, 0, STATIC
        LOCFRAME DOVERLAY, 0, STATIC
        ARGFRAME ISTACK, 0, STACK
        ARGFRAME PSTACK, 0, STACK
        ARGFRAME XSTACK, 11, STACK
        ARGFRAME IOVERLAY, 0, STATIC
        ARGFRAME DOVERLAY, 0, STATIC
        FUNCALL usbfwSetupHandler, usbsrSetInterface
        LOCFRAME ISTACK, 0, STACK
        LOCFRAME PSTACK, 0, STACK
        LOCFRAME XSTACK, 11, STACK
        LOCFRAME IOVERLAY, 0, STATIC
        LOCFRAME DOVERLAY, 0, STATIC
        ARGFRAME ISTACK, 0, STACK
        ARGFRAME PSTACK, 0, STACK
        ARGFRAME XSTACK, 11, STACK
        ARGFRAME IOVERLAY, 0, STATIC
        ARGFRAME DOVERLAY, 0, STATIC
        FUNCALL usbfwSetupHandler, usbsrGetStatus
        LOCFRAME ISTACK, 0, STACK
        LOCFRAME PSTACK, 0, STACK
        LOCFRAME XSTACK, 11, STACK
        LOCFRAME IOVERLAY, 0, STATIC
        LOCFRAME DOVERLAY, 0, STATIC
        ARGFRAME ISTACK, 0, STACK
        ARGFRAME PSTACK, 0, STACK
        ARGFRAME XSTACK, 11, STACK
        ARGFRAME IOVERLAY, 0, STATIC
        ARGFRAME DOVERLAY, 0, STATIC
        FUNCALL usbfwSetupHandler, usbsrGetDescriptor
        LOCFRAME ISTACK, 0, STACK
        LOCFRAME PSTACK, 0, STACK
        LOCFRAME XSTACK, 11, STACK
        LOCFRAME IOVERLAY, 0, STATIC
        LOCFRAME DOVERLAY, 0, STATIC
        ARGFRAME ISTACK, 0, STACK
        ARGFRAME PSTACK, 0, STACK
        ARGFRAME XSTACK, 11, STACK
        ARGFRAME IOVERLAY, 0, STATIC
        ARGFRAME DOVERLAY, 0, STATIC
        FUNCALL usbfwSetupHandler, usbsrGetConfiguration
        LOCFRAME ISTACK, 0, STACK
        LOCFRAME PSTACK, 0, STACK
        LOCFRAME XSTACK, 11, STACK
        LOCFRAME IOVERLAY, 0, STATIC
        LOCFRAME DOVERLAY, 0, STATIC
        ARGFRAME ISTACK, 0, STACK
        ARGFRAME PSTACK, 0, STACK
        ARGFRAME XSTACK, 11, STACK
        ARGFRAME IOVERLAY, 0, STATIC
        ARGFRAME DOVERLAY, 0, STATIC
        FUNCALL usbfwSetupHandler, usbsrGetInterface
        LOCFRAME ISTACK, 0, STACK
        LOCFRAME PSTACK, 0, STACK
        LOCFRAME XSTACK, 11, STACK
        LOCFRAME IOVERLAY, 0, STATIC
        LOCFRAME DOVERLAY, 0, STATIC
        ARGFRAME ISTACK, 0, STACK
        ARGFRAME PSTACK, 0, STACK
        ARGFRAME XSTACK, 11, STACK
        ARGFRAME IOVERLAY, 0, STATIC
        ARGFRAME DOVERLAY, 0, STATIC
        FUNCALL usbfwSetupHandler, usbvrHookProcessOut
        LOCFRAME ISTACK, 0, STACK
        LOCFRAME PSTACK, 0, STACK
        LOCFRAME XSTACK, 11, STACK
        LOCFRAME IOVERLAY, 0, STATIC
        LOCFRAME DOVERLAY, 0, STATIC
        ARGFRAME ISTACK, 0, STACK
        ARGFRAME PSTACK, 0, STACK
        ARGFRAME XSTACK, 11, STACK
        ARGFRAME IOVERLAY, 0, STATIC
        ARGFRAME DOVERLAY, 0, STATIC
        FUNCALL usbfwSetupHandler, usbvrHookProcessIn
        LOCFRAME ISTACK, 0, STACK
        LOCFRAME PSTACK, 0, STACK
        LOCFRAME XSTACK, 11, STACK
        LOCFRAME IOVERLAY, 0, STATIC
        LOCFRAME DOVERLAY, 0, STATIC
        ARGFRAME ISTACK, 0, STACK
        ARGFRAME PSTACK, 0, STACK
        ARGFRAME XSTACK, 11, STACK
        ARGFRAME IOVERLAY, 0, STATIC
        ARGFRAME DOVERLAY, 0, STATIC
        FUNCALL usbfwSetupHandler, usbcrHookProcessOut
        LOCFRAME ISTACK, 0, STACK
        LOCFRAME PSTACK, 0, STACK
        LOCFRAME XSTACK, 11, STACK
        LOCFRAME IOVERLAY, 0, STATIC
        LOCFRAME DOVERLAY, 0, STATIC
        ARGFRAME ISTACK, 0, STACK
        ARGFRAME PSTACK, 0, STACK
        ARGFRAME XSTACK, 11, STACK
        ARGFRAME IOVERLAY, 0, STATIC
        ARGFRAME DOVERLAY, 0, STATIC
        FUNCALL usbfwSetupHandler, usbcrHookProcessIn
        LOCFRAME ISTACK, 0, STACK
        LOCFRAME PSTACK, 0, STACK
        LOCFRAME XSTACK, 11, STACK
        LOCFRAME IOVERLAY, 0, STATIC
        LOCFRAME DOVERLAY, 0, STATIC
        ARGFRAME ISTACK, 0, STACK
        ARGFRAME PSTACK, 0, STACK
        ARGFRAME XSTACK, 11, STACK
        ARGFRAME IOVERLAY, 0, STATIC
        ARGFRAME DOVERLAY, 0, STATIC
        FUNCALL usbfwSetupHandler, usbfwWriteFifo
        LOCFRAME ISTACK, 0, STACK
        LOCFRAME PSTACK, 0, STACK
        LOCFRAME XSTACK, 14, STACK
        LOCFRAME IOVERLAY, 0, STATIC
        LOCFRAME DOVERLAY, 0, STATIC
        ARGFRAME ISTACK, 0, STACK
        ARGFRAME PSTACK, 0, STACK
        ARGFRAME XSTACK, 14, STACK
        ARGFRAME IOVERLAY, 0, STATIC
        ARGFRAME DOVERLAY, 0, STATIC
        MOV     A,#-0xb
        LCALL   ?BANKED_ENTER_XDATA
          CFI DPH0 load(1, XDATA, add(CFA_XSP16, literal(-1)))
          CFI DPL0 load(1, XDATA, add(CFA_XSP16, literal(-2)))
          CFI ?BRET_EXT load(1, XDATA, add(CFA_XSP16, literal(-3)))
          CFI ?RET_HIGH load(1, XDATA, add(CFA_XSP16, literal(-4)))
          CFI ?RET_LOW load(1, XDATA, add(CFA_XSP16, literal(-5)))
          CFI R7 load(1, XDATA, add(CFA_XSP16, literal(-6)))
          CFI V2 load(1, XDATA, add(CFA_XSP16, literal(-7)))
          CFI V1 load(1, XDATA, add(CFA_XSP16, literal(-8)))
          CFI V0 load(1, XDATA, add(CFA_XSP16, literal(-9)))
          CFI VB load(1, XDATA, add(CFA_XSP16, literal(-10)))
          CFI R6 load(1, XDATA, add(CFA_XSP16, literal(-11)))
          CFI CFA_SP SP+0
          CFI CFA_XSP16 add(XSP16, 11)
        ; Saved register size: 11
        ; Auto size: 0
//   79    uint8 controlReg;
//   80    uint8 bytesNow;
//   81    uint8 oldEndpoint;
//   82 
//   83    // Save the old index setting, then select endpoint 0 and fetch the control register
//   84    oldEndpoint = USBFW_GET_SELECTED_ENDPOINT();
        MOV     DPTR,#0x620e
        MOVX    A,@DPTR
        MOV     R6,A
//   85    USBFW_SELECT_ENDPOINT(0);
        CLR     A
        MOVX    @DPTR,A
//   86    controlReg = USBCS0;
        MOV     DPTR,#0x6211
        MOVX    A,@DPTR
        MOV     R7,A
//   87 
//   88    // The last transfer was ended prematurely by a new SETUP packet
//   89    if (controlReg & USBCS0_SETUP_END) {
        MOV     C,0xE0 /* A   */.4
        JNC     ??usbfwSetupHandler_0
//   90       USBCS0 = USBCS0_CLR_SETUP_END;
        MOV     A,#-0x80
        MOVX    @DPTR,A
//   91       usbfwData.ep0Status = EP_CANCEL;
        MOV     DPTR,#usbfwData + 7
        MOV     A,#0x7
        MOVX    @DPTR,A
//   92       if (ProcessFunc) ProcessFunc();
        MOV     A,??ProcessFunc+0x0
        ORL     A,??ProcessFunc+0x1
        JZ      ??usbfwSetupHandler_1
        ; Setup parameters for indirect call
        MOV     DPL,??ProcessFunc+0x0
        MOV     DPH,??ProcessFunc+0x1
        LCALL   ?CALL_IND
//   93       usbfwData.ep0Status = EP_IDLE;
??usbfwSetupHandler_1:
        MOV     DPTR,#usbfwData + 7
        CLR     A
        MOVX    @DPTR,A
//   94    }
//   95 
//   96    // A STALL handshake was transmitted to the PC
//   97    if (controlReg & USBCS0_SENT_STALL) {
??usbfwSetupHandler_0:
        MOV     A,R7
        MOV     C,0xE0 /* A   */.2
        JNC     ??usbfwSetupHandler_2
//   98       USBCS0 = 0x00;
        MOV     DPTR,#0x6211
        CLR     A
        MOVX    @DPTR,A
//   99       usbfwData.ep0Status = EP_IDLE;
        MOV     DPTR,#usbfwData + 7
        MOVX    @DPTR,A
        SJMP    ??usbfwSetupHandler_3
//  100    }
//  101 
//  102    // Receive OUT packets
//  103    if (usbfwData.ep0Status == EP_RX) {
??usbfwSetupHandler_2:
        MOV     DPTR,#usbfwData + 7
        MOVX    A,@DPTR
        MOV     R0,A
        MOV     A,#0x2
        XRL     A,R0
        JNZ     ??usbfwSetupHandler_4
//  104 
//  105       // Read FIFO
//  106       bytesNow = USBCNT0;
        MOV     DPTR,#0x6216
        MOVX    A,@DPTR
        MOV     R7,A
//  107       usbfwReadFifo(&USBF0, bytesNow, usbSetupData.pBuffer);
        ; Setup parameters for call to function usbfwReadFifo
        MOV     DPTR,#usbSetupData
        LCALL   ?PUSH_XSTACK8_X_THREE
          CFI CFA_XSP16 add(XSP16, 14)
        MOV     A,R7
        MOV     R1,A
        MOV     R2,#0x20
        MOV     R3,#0x62
        LCALL   ??usbfwReadFifo?relay
        MOV     A,#0x3
        LCALL   ?DEALLOC_XSTACK8
          CFI CFA_XSP16 add(XSP16, 11)
//  108       usbSetupData.bytesLeft -= bytesNow;
        MOV     ?V0 + 0,R7
        MOV     DPTR,#usbSetupData + 3
        LCALL   ?Subroutine17 & 0xFFFF
//  109       usbSetupData.pBuffer += bytesNow;
??CrossCallReturnLabel_24:
        LCALL   ?Subroutine7 & 0xFFFF
//  110 
//  111       // Arm the endpoint
//  112       USBCS0 = usbSetupData.bytesLeft ? USBCS0_CLR_OUTPKT_RDY : (USBCS0_CLR_OUTPKT_RDY | USBCS0_DATA_END);
??CrossCallReturnLabel_2:
        LCALL   ??Subroutine35_0 & 0xFFFF
??CrossCallReturnLabel_59:
        JZ      ??usbfwSetupHandler_5
        MOV     A,#0x40
        SJMP    ??usbfwSetupHandler_6
??usbfwSetupHandler_5:
        MOV     A,#0x48
??usbfwSetupHandler_6:
        MOV     DPTR,#0x6211
        MOVX    @DPTR,A
//  113 
//  114       // Make a call to the appropriate request handler when done
//  115       if (usbSetupData.bytesLeft == 0) {
        MOV     A,R0
        ORL     A,R1
        JZ      $+5
        LJMP    ??usbfwSetupHandler_7 & 0xFFFF
        LJMP    ??usbfwSetupHandler_8 & 0xFFFF
//  116          if (ProcessFunc) ProcessFunc();
//  117          usbfwData.ep0Status = EP_IDLE;
//  118       }
//  119 
//  120       // Return here since nothing more will happen until the next interrupt
//  121       USBFW_SELECT_ENDPOINT(oldEndpoint);
//  122       return;
//  123 
//  124    // Let the application handle the reception
//  125    } else if (usbfwData.ep0Status == EP_MANUAL_RX) {
??usbfwSetupHandler_4:
        MOV     A,#0x6
        XRL     A,R0
        JNZ     ??usbfwSetupHandler_9
//  126       ProcessFunc();
        ; Setup parameters for indirect call
        MOV     DPL,??ProcessFunc+0x0
        MOV     DPH,??ProcessFunc+0x1
        LCALL   ?CALL_IND
//  127    }
//  128 
//  129    // Receive SETUP header
//  130    if (usbfwData.ep0Status == EP_IDLE) {
??usbfwSetupHandler_9:
        MOV     DPTR,#usbfwData + 7
        MOVX    A,@DPTR
        JZ      $+5
        LJMP    ??usbfwSetupHandler_10 & 0xFFFF
//  131       if (controlReg & USBCS0_OUTPKT_RDY) {
??usbfwSetupHandler_3:
        MOV     A,R7
        MOV     C,0xE0 /* A   */.0
        JC      $+5
        LJMP    ??usbfwSetupHandler_7 & 0xFFFF
//  132          usbfwReadFifo(&USBF0, 8, (uint8 __xdata *) &usbSetupHeader);
        ; Setup parameters for call to function usbfwReadFifo
        MOV     ?V0 + 0,#usbSetupHeader & 0xff
        MOV     ?V0 + 1,#(usbSetupHeader >> 8) & 0xff
        MOV     ?V0 + 2,#0x0
        MOV     R0,#?V0 + 0
        LCALL   ?PUSH_XSTACK_I_THREE
          CFI CFA_XSP16 add(XSP16, 14)
        MOV     R1,#0x8
        MOV     R2,#0x20
        MOV     R3,#0x62
        LCALL   ??usbfwReadFifo?relay
        MOV     A,#0x3
        LCALL   ?DEALLOC_XSTACK8
          CFI CFA_XSP16 add(XSP16, 11)
//  133 
//  134          // Handle control transfers individually
//  135          ProcessFunc = NULL;
        MOV     ??ProcessFunc+0x0,#0x0
        MOV     ??ProcessFunc+0x1,#0x0
//  136          switch (usbSetupHeader.requestType & (RT_MASK_TYPE | RT_MASK_DIR)) {
        MOV     DPTR,#usbSetupHeader
        MOVX    A,@DPTR
        ANL     A,#0xe0
        JZ      ??usbfwSetupHandler_11
        ADD     A,#-0x20
        JNZ     $+5
        LJMP    ??usbfwSetupHandler_12 & 0xFFFF
        ADD     A,#-0x20
        JZ      ??usbfwSetupHandler_13
        ADD     A,#-0x40
        JZ      ??usbfwSetupHandler_14
        ADD     A,#-0x20
        JNZ     $+5
        LJMP    ??usbfwSetupHandler_15 & 0xFFFF
        ADD     A,#-0x20
        JZ      ??usbfwSetupHandler_16
        LJMP    ??usbfwSetupHandler_17 & 0xFFFF
//  137 
//  138             // Standard requests with data from the host (OUT)
//  139          case RT_STD_OUT:
//  140             switch (usbSetupHeader.request) {
??usbfwSetupHandler_11:
        INC     DPTR
        MOVX    A,@DPTR
        DEC     A
        JZ      ??usbfwSetupHandler_18
        ADD     A,#-0x2
        JZ      ??usbfwSetupHandler_19
        ADD     A,#-0x2
        JZ      ??usbfwSetupHandler_20
        ADD     A,#-0x4
        JZ      ??usbfwSetupHandler_21
        ADD     A,#-0x2
        JZ      ??usbfwSetupHandler_22
        SJMP    ??usbfwSetupHandler_17
//  141             case SET_ADDRESS:       usbsrSetAddress(); break;
??usbfwSetupHandler_20:
        ; Setup parameters for call to function usbsrSetAddress
        LCALL   ??usbsrSetAddress?relay
//  142             case SET_FEATURE:       usbsrSetFeature(); break;
//  143             case CLEAR_FEATURE:     usbsrClearFeature(); break;
//  144             case SET_CONFIGURATION: usbsrSetConfiguration(); break;
//  145             case SET_INTERFACE:     usbsrSetInterface(); break;
//  146             case SET_DESCRIPTOR:    /*usbsrHookSetDescriptor(); break; - unsupported */
//  147             default:                usbfwData.ep0Status = EP_STALL; break;
//  148             }
//  149             break;
//  150 
//  151             // Standard requests with data to the host (IN)
//  152          case RT_STD_IN:
//  153             switch (usbSetupHeader.request) {
//  154             case GET_STATUS:        usbsrGetStatus(); break;
//  155             case GET_DESCRIPTOR:    usbsrGetDescriptor(); break;
//  156             case GET_CONFIGURATION: usbsrGetConfiguration(); break;
//  157             case GET_INTERFACE:     usbsrGetInterface(); break;
//  158             case SYNCH_FRAME:       /*usbsrHookSynchFrame(); break; - unsupported */
//  159             default:                usbfwData.ep0Status = EP_STALL; break;
//  160             }
//  161             break;
//  162 
//  163             // Vendor requests
//  164          case RT_VEND_OUT:
//  165             ProcessFunc = usbvrHookProcessOut; usbvrHookProcessOut();
//  166             break;
//  167          case RT_VEND_IN:
//  168             ProcessFunc = usbvrHookProcessIn; usbvrHookProcessIn();
//  169             break;
//  170 
//  171             // Class requests
//  172          case RT_CLASS_OUT:
//  173             ProcessFunc = usbcrHookProcessOut; usbcrHookProcessOut();
//  174             break;
//  175          case RT_CLASS_IN:
//  176             ProcessFunc = usbcrHookProcessIn; usbcrHookProcessIn();
//  177             break;
//  178 
//  179             // Unrecognized request: Stall the endpoint
//  180          default:
//  181             usbfwData.ep0Status = EP_STALL;
//  182             break;
//  183          }
//  184 
//  185          // Arm/stall the endpoint
//  186          USBCS0 = (usbfwData.ep0Status == EP_STALL) ? (USBCS0_CLR_OUTPKT_RDY | USBCS0_SEND_STALL) : USBCS0_CLR_OUTPKT_RDY;
??usbfwSetupHandler_23:
        MOV     DPTR,#usbfwData + 7
        MOVX    A,@DPTR
        XRL     A,#0x4
        JNZ     ??usbfwSetupHandler_24
??usbfwSetupHandler_25:
        MOV     A,#0x60
        SJMP    ??usbfwSetupHandler_26
??usbfwSetupHandler_19:
        ; Setup parameters for call to function usbsrSetFeature
        LCALL   ??usbsrSetFeature?relay
        SJMP    ??usbfwSetupHandler_23
??usbfwSetupHandler_18:
        ; Setup parameters for call to function usbsrClearFeature
        LCALL   ??usbsrClearFeature?relay
        SJMP    ??usbfwSetupHandler_23
??usbfwSetupHandler_21:
        ; Setup parameters for call to function usbsrSetConfiguration
        LCALL   ??usbsrSetConfiguration?relay
        SJMP    ??usbfwSetupHandler_23
??usbfwSetupHandler_22:
        ; Setup parameters for call to function usbsrSetInterface
        LCALL   ??usbsrSetInterface?relay
        SJMP    ??usbfwSetupHandler_23
??usbfwSetupHandler_14:
        INC     DPTR
        MOVX    A,@DPTR
        JZ      ??usbfwSetupHandler_27
        ADD     A,#-0x6
        JZ      ??usbfwSetupHandler_28
        ADD     A,#-0x2
        JZ      ??usbfwSetupHandler_29
        ADD     A,#-0x2
        JZ      ??usbfwSetupHandler_30
        SJMP    ??usbfwSetupHandler_17
??usbfwSetupHandler_27:
        ; Setup parameters for call to function usbsrGetStatus
        LCALL   ??usbsrGetStatus?relay
        SJMP    ??usbfwSetupHandler_23
??usbfwSetupHandler_28:
        ; Setup parameters for call to function usbsrGetDescriptor
        LCALL   ??usbsrGetDescriptor?relay
        SJMP    ??usbfwSetupHandler_23
??usbfwSetupHandler_29:
        ; Setup parameters for call to function usbsrGetConfiguration
        LCALL   ??usbsrGetConfiguration?relay
        SJMP    ??usbfwSetupHandler_23
??usbfwSetupHandler_30:
        ; Setup parameters for call to function usbsrGetInterface
        LCALL   ??usbsrGetInterface?relay
        SJMP    ??usbfwSetupHandler_23
??usbfwSetupHandler_13:
        MOV     ??ProcessFunc+0x0,#??usbvrHookProcessOut?relay & 0xff
        MOV     ??ProcessFunc+0x1,#(??usbvrHookProcessOut?relay >> 8) & 0xff
        ; Setup parameters for call to function usbvrHookProcessOut
        LCALL   ??usbvrHookProcessOut?relay
        SJMP    ??usbfwSetupHandler_23
??usbfwSetupHandler_16:
        MOV     ??ProcessFunc+0x0,#??usbvrHookProcessIn?relay & 0xff
        MOV     ??ProcessFunc+0x1,#(??usbvrHookProcessIn?relay >> 8) & 0xff
        ; Setup parameters for call to function usbvrHookProcessIn
        LCALL   ??usbvrHookProcessIn?relay
        SJMP    ??usbfwSetupHandler_23
??usbfwSetupHandler_12:
        MOV     ??ProcessFunc+0x0,#??usbcrHookProcessOut?relay & 0xff
        MOV     ??ProcessFunc+0x1,#(??usbcrHookProcessOut?relay >> 8) & 0xff
        ; Setup parameters for call to function usbcrHookProcessOut
        LCALL   ??usbcrHookProcessOut?relay
        SJMP    ??usbfwSetupHandler_23
??usbfwSetupHandler_15:
        MOV     ??ProcessFunc+0x0,#??usbcrHookProcessIn?relay & 0xff
        MOV     ??ProcessFunc+0x1,#(??usbcrHookProcessIn?relay >> 8) & 0xff
        ; Setup parameters for call to function usbcrHookProcessIn
        LCALL   ??usbcrHookProcessIn?relay
        SJMP    ??usbfwSetupHandler_23
??usbfwSetupHandler_17:
        MOV     DPTR,#usbfwData + 7
        MOV     A,#0x4
        MOVX    @DPTR,A
